(dp0
S'2011'
p1
(dp2
S'tW'
p3
F7.8700000000000001
sS'GluGluWW'
p4
F0.15049999999999999
sS'fakes'
p5
F1.0
sS'WW'
p6
F4.5099999999999998
sS'WZJets2L2Q'
p7
F1.8329
sS'ZbbToLL'
p8
F304.0
sS'WZ'
p9
F0.59599999999999997
sS'ZZJets2L2Q'
p10
F0.62460000000000004
sS'ZJets'
p11
F3048.0
sS'DATA_MUEG'
p12
F1.0
sS'FCNC_M125_t'
p13
F0.0040000000000000001
sS'WJets'
p14
I31314
sS'ttbar'
p15
I165
sS'DATA_MUON'
p16
F1.0
sS'DYToTauTau'
p17
F1666.0
sS'ZG'
p18
F159.12
sS'ZZ'
p19
F0.214
sS'WWJets2L2Nu'
p20
F4.7830000000000004
sS'WZJets3LNu'
p21
F0.85599999999999998
sS'ZJets_M-10To50'
p22
F742.60000000000002
sS'ZZJets2L2Nu'
p23
F0.1787
sS'FCNC_M125_tbar'
p24
F0.0040000000000000001
sS'ZGToNuNu'
p25
F3.4620000000000002
sS'DATA_ELECTRON'
p26
F1.0
sS'DYToEE'
p27
F1666.0
sS'DYToMuMu'
p28
F1666.0
sS'tbarW'
p29
F7.8700000000000001
ssS'2012'
p30
(dp31
S'WG'
p32
F1000.0
sg13
F0.0074000000000000003
sg3
F11.77
sS'tbar_t-channel'
p33
F30.699999999999999
sg4
F0.15049999999999999
sg5
F1.0
sg6
F54.799999999999997
sS'QCD_80-170_EM'
p34
I183722
sS'QCD_250-350_EM'
p35
F556.75
sS'WHToWWW3L_M-125'
p36
F0.01
sS'ggHToZZ4L_M-125'
p37
F0.01
sg7
F5.0899999999999999
sg17
F1666.0
sg8
F100.0
sS'WWZ'
p38
F0.063
sS'ZZ4tau'
p39
F0.076910000000000006
sg9
F32.299999999999997
sg10
F1.28
sS'ttZ'
p40
F0.20799999999999999
sg11
F3532.8000000000002
sS'ZZZ'
p41
F0.0045999999999999999
sS'WGStarLNu2Mu'
p42
F1.9139999999999999
sg12
F1.0
sS'ttW'
p43
F0.249
sS'ZZ4mu'
p44
F0.076910000000000006
sg14
I31314
sS'QCD_170-250_EM'
p45
I4588
sS'ZZ2mu2tau'
p46
F0.1767
sS'ZZ4e'
p47
F0.076910000000000006
sg15
I234
sS'ttG'
p48
F1.4399999999999999
sg16
F1.0
sS'WZZ'
p49
F0.019199999999999998
sS'ZZJets4L'
p50
F0.092100000000000001
sS'WGStarLNu2E'
p51
F5.8730000000000002
sg18
F159.12
sS'ZZ2e2mu'
p52
F0.1767
sS'QCD_30-80_EM'
p53
F4615893.0
sS'QCD_20-30_EM'
p54
F2920632.0
sg19
F7.7000000000000002
sS't_t-channel'
p55
F55.530000000000001
sg20
F5.9950000000000001
sg21
F1.0860000000000001
sg22
F860.5
sS'ggHToWW2L2Nu_M-125'
p56
F0.01
sg23
F0.36499999999999999
sg24
F0.0074000000000000003
sS'WWW'
p57
F0.082000000000000003
sg25
F3.4620000000000002
sg26
F1.0
sg27
F1666.0
sS'WbbToLNu'
p58
F10000.0
sS'WGStarLNu2Tau'
p59
F0.33600000000000002
sS'WWG'
p60
F0.52800000000000002
sS'ZZ2e2tau'
p61
F0.1767
sS'QCD_350_EM'
p62
F89.099999999999994
sS'QCD_20_MU'
p63
F84679.0
sg28
F1666.0
sg29
F11.77
ss.(dp0
S'WG'
p1
(I0
I859
I1
I1
S'WG*'
p2
tp3
sS'ZZToEE'
p4
(I2
I413
I0
I1
S'ZZ (ee)'
p5
tp6
sS'RATIO'
p7
(I0
I1
I3002
I21
S'Ratio'
p8
tp9
sS'ZZ2mu2tau'
p10
(I2
I805
I1
I1
S'ZZ#rightarrow 2#mu2#tau'
p11
tp12
sS'tbar_t-channel'
p13
(I2
I596
I1
I1
S'#bar{t} (t-channel)'
p14
tp15
sS'tbarW'
p16
(I2
I598
I1
I1
S'#bar{t}W'
p17
tp18
sS'WW'
p19
(I2
I412
I0
I1
g19
tp20
sS'GJets_15to30'
p21
(I2
I402
I0
I1
S'gamma+jets'
p22
tp23
sS'ZZToEMu'
p24
(I2
I414
I0
I1
S'ZZ (e#mu)'
p25
tp26
sS'SUM_EFF'
p27
(I1
I600
I3018
I21
S'BG'
p28
tp29
sS'QCD'
p30
(I2
I800
I1
I1
g30
tp31
sS'WZJets2L2Q'
p32
(I3
I597
I0
I1
S'WZ#rightarrow2l2q'
p33
tp34
sS'DYToTauTau'
p35
(I2
I629
I0
I1
S'Z+jets (#tau#tau)'
p36
tp37
sS'ZbbToLL'
p38
(I2
I624
I1
I1
S'Z+bb'
p39
tp40
sS'WWZ'
p41
(I0
I433
I1
I1
g41
tp42
sS'DATA'
p43
(I2
I1
I0
I21
S'Observed'
p44
tp45
sS'ZZToTauTau'
p46
(I2
I418
I0
I1
S'ZZ (#tau#tau)'
p47
tp48
sS'SIG_EFF'
p49
(I1
I632
I3018
I21
S'Signal'
p50
tp51
sS'ZZJets2L2Q'
p52
(I2
I593
I1
I1
S'ZZ#rightarrow2l2q'
p53
tp54
sS'ttZ'
p55
(I0
I417
I1
I1
S't#bar{t}Z'
p56
tp57
sS'ZJets'
p58
(I0
I633
I1
I1
S'Z+jets (M_{Z/#gamma*} > 50)'
p59
tp60
sS'PhotonJets'
p61
(I2
I632
I0
I1
S'Z+jets (data)'
p62
tp63
sS'ZZZ'
p64
(I0
I435
I1
I1
g64
tp65
sS'WGStarLNu2Mu'
p66
(I0
I860
I1
I1
S'WG*#ell#nu2#mu'
p67
tp68
sS'DATA_MUEG'
p69
(I2
I922
I0
I21
S'Observed (e#mu)'
p70
tp71
sS'ZZ4tau'
p72
(I2
I808
I1
I1
S'ZZ#rightarrow 4#tau'
p73
tp74
sS'top'
p75
(I0
I601
I1
I1
g75
tp76
sS'ttW'
p77
(I0
I418
I1
I1
S't#bar{t}W'
p78
tp79
sS'ttV'
p80
(I0
I417
I1
I1
S't#bar{t}V'
p81
tp82
sS'ZZ4mu'
p83
(I2
I810
I1
I1
S'ZZ#rightarrow 4l'
p84
tp85
sS'WJets'
p86
(I2
I857
I1
I1
S'W+jets'
p87
tp88
sS'ZZToMuTau'
p89
(I2
I414
I0
I1
S'ZZ (#mu#tau)'
p90
tp91
sS'tW'
p92
(I2
I599
I1
I1
g75
tp93
sS'ZZ4e'
p94
(I2
I809
I1
I1
S'ZZ#rightarrow 4e'
p95
tp96
sS'ZJets_M-10To50'
p97
(I0
I634
I1
I1
S'Z+jets (M_{Z/#gamma*} < 50)'
p98
tp99
sS'FCNH'
p100
(I3
I903
I2
I22
g100
tp101
sS'ttG'
p102
(I0
I419
I1
I1
S't#bar{t}G'
p103
tp104
sS'DATA_MUON'
p105
(I2
I920
I0
I21
S'Observed (#mu#mu)'
p106
tp107
sS'WZZ'
p108
(I0
I434
I1
I1
g108
tp109
sS'ZZJets4L'
p110
(I2
I602
I1
I1
S'ZZ#rightarrow4l'
p111
tp112
sS'WGStarLNu2E'
p113
(I0
I860
I1
I1
S'WG*#ell#nu2e'
p114
tp115
sS'ZG'
p116
(I0
I623
I1
I1
S'Z#gamma'
p117
tp118
sS'WZ'
p119
(I2
I909
I0
I1
g119
tp120
sS'WWW'
p121
(I0
I432
I1
I1
g121
tp122
sS'ZZToMuMu'
p123
(I2
I419
I0
I1
S'ZZ#rightarrow 4l '
p124
tp125
sS'ZZ'
p126
(I2
I804
I0
I1
g126
tp127
sS't_t-channel'
p128
(I2
I597
I1
I1
S't (t-channel)'
p129
tp130
sS'WWJets2L2Nu'
p131
(I0
I921
I1
I1
S'WW#rightarrow2l2#nu'
p132
tp133
sS'WZJets3LNu'
p134
(I3
I603
I0
I1
S'WZ#rightarrow3l#nu'
p135
tp136
sS'ttbar'
p137
(I0
I600
I1
I1
S't#bar{t}'
p138
tp139
sS'ZZJets2L2Nu'
p140
(I2
I419
I1
I1
S'ZZ#rightarrow2l2#nu'
p141
tp142
sS'ZZ2e2mu'
p143
(I2
I807
I1
I1
S'ZZ#rightarrow 2e2#mu'
p144
tp145
sS'Diboson'
p146
(I0
I921
I1
I1
S'diboson'
p147
tp148
sS'ZGToNuNu'
p149
(I2
I603
I0
I1
S'ZG->#nu#nu'
p150
tp151
sS'higgs'
p152
(I2
I603
I0
I1
g152
tp153
sS'Triboson'
p154
(I0
I432
I1
I1
S'triboson'
p155
tp156
sS'DATA_ELECTRON'
p157
(I2
I921
I0
I21
S'Observed (ee)'
p158
tp159
sS'DYToEE'
p160
(I2
I632
I0
I1
S'Z+jets (ee)'
p161
tp162
sS'WbbToLNu'
p163
(I2
I858
I1
I1
S'W+bb'
p164
tp165
sS'WGStarLNu2Tau'
p166
(I0
I860
I1
I1
S'WG*#ell#nu2#tau'
p167
tp168
sS'WWG'
p169
(I0
I436
I1
I1
g169
tp170
sS'ZZ2e2tau'
p171
(I2
I806
I1
I1
S'ZZ#rightarrow 2e2#tau'
p172
tp173
sS'fakes'
p174
(I2
I1
I0
I21
g174
tp175
sS'DYToMuMu'
p176
(I2
I632
I0
I1
S'Z+jets (#mu#mu)'
p177
tp178
sS'VJets'
p179
(I0
I632
I1
I1
S'V+jets'
p180
tp181
sS'ZZToETau'
p182
(I2
I414
I0
I1
S'ZZ (e#tau)'
p183
tp184
sS'BGERROR'
p185
(I0
I1
I3018
I0
S'BG error'
p186
tp187
s.(dp0
S'Diboson'
p1
(lp2
S'ZZ4mu'
p3
aS'ZZ4e'
p4
aS'ZZ4tau'
p5
aS'ZZ2e2mu'
p6
aS'ZZ2mu2tau'
p7
aS'ZZ2e2tau'
p8
aS'WZJets3LNu'
p9
aS'WWJets2L2Nu'
p10
aS'ZZJets2L2Nu'
p11
asS'higgs'
p12
(lp13
S'ggHToZZ4L_M-125'
p14
aS'WHToWWW3L_M-125'
p15
asS'top'
p16
(lp17
S'ttbar'
p18
aS'tW'
p19
aS'tbarW'
p20
aS't_t-channel'
p21
aS'tbar_t-channel'
p22
asS'ttV'
p23
(lp24
S'ttZ'
p25
aS'ttW'
p26
aS'ttG'
p27
asS'WGStar'
p28
(lp29
S'WGStarLNu2E'
p30
aS'WGStarLNu2Mu'
p31
aS'WGStarLNu2Tau'
p32
asS'QCD'
p33
(lp34
S'QCD_20_MU'
p35
aS'QCD_20-30_EM'
p36
aS'QCD_30-80_EM'
p37
aS'QCD_80-170_EM'
p38
aS'QCD_170-250_EM'
p39
aS'QCD_250-350_EM'
p40
aS'QCD_350_EM'
p41
asS'GJets_15to30'
p42
(lp43
S'GJets_30to50'
p44
aS'GJets_50to80'
p45
aS'GJets_80to120'
p46
aS'GJets_120to170'
p47
aS'GJets_170to300'
p48
aS'GJets_300to470'
p49
aS'GJets_470to800'
p50
asS'FCNH'
p51
(lp52
S'FCNC_M125_t'
p53
aS'FCNC_M125_tbar'
p54
asS'DATA'
p55
(lp56
S'DATA_MUON'
p57
aS'DATA_ELECTRON'
p58
aS'DATA_MUEG'
p59
asS'Triboson'
p60
(lp61
S'WWW'
p62
aS'WWZ'
p63
aS'WZZ'
p64
aS'ZZZ'
p65
aS'WWG'
p66
asS'VJets'
p67
(lp68
S'ZJets'
p69
aS'ZJets_M-10To50'
p70
aS'WJets'
p71
as.(dp0
S'3l_emumu'
p1
S'e#mu#mu'
p2
sS'ss_mumu'
p3
S'#mu^{#pm}#mu^{#pm}'
p4
sS'3l_SSSF'
p5
S'(l^{#pm}l^{#pm})l'
p6
sS'inclusive'
p7
g7
sS'os_emu'
p8
S'e^{#pm}mu^{#mp}'
p9
sS'3l_eemu'
p10
S'ee#mu'
p11
sS'3l_inclusive'
p12
S'3l inclusive'
p13
sS'ss_emu'
p14
S'e^{#pm}#mu^{#pm}'
p15
sS'3l_eee'
p16
S'eee'
p17
sS'ss_ee'
p18
S'e^{#pm}e^{#pm}'
p19
sS'os_mumu'
p20
S'#mu^{#pm}#mu^{#mp}'
p21
sS'os_inclusive'
p22
S'os inclusive'
p23
sS'3l_OSSF'
p24
S'(l^{#pm}l^{#mp})l'
p25
sS'ss_inclusive'
p26
S'ss inclusive'
p27
sS'os_ee'
p28
S'e^{#pm}e^{#mp}'
p29
sS'3l_mumumu'
p30
S'#mu#mu#mu'
p31
s.