(dp0
S'2011'
p1
(dp2
S'tW'
p3
F7.8700000000000001
sS'GluGluWW'
p4
F0.15049999999999999
sS'WW'
p5
F4.5099999999999998
sS'QFlips'
p6
F1.0
sS'WZJets2L2Q'
p7
F1.8329
sS'ZbbToLL'
p8
F304.0
sS'WZ'
p9
F0.59599999999999997
sS'ZZJets2L2Q'
p10
F0.62460000000000004
sS'ZJets_M-50'
p11
F3048.0
sS'DATA_MUEG'
p12
F1.0
sS'FCNC_M125_t'
p13
F0.0040000000000000001
sS'WJets'
p14
I31314
sS'ttbar'
p15
I165
sS'DATA_MUON'
p16
F1.0
sS'DYToTauTau'
p17
F1666.0
sS'ZG'
p18
F159.12
sS'ZZ'
p19
F0.214
sS'WWJets2L2Nu'
p20
F4.7830000000000004
sS'WZJets3LNu'
p21
F0.85599999999999998
sS'ZJets_M-10To50'
p22
F742.60000000000002
sS'ZZJets2L2Nu'
p23
F0.1787
sS'FCNC_M125_tbar'
p24
F0.0040000000000000001
sS'ZGToNuNu'
p25
F3.4620000000000002
sS'DATA_ELECTRON'
p26
F1.0
sS'DYToEE'
p27
F1666.0
sS'Fakes'
p28
F1.0
sS'DYToMuMu'
p29
F1666.0
sS'tbarW'
p30
F7.8700000000000001
ssS'2012'
p31
(dp32
S'WG'
p33
F1000.0
sg13
F0.014628599999999997
sg3
F11.77
sS'tbar_t-channel'
p34
F30.699999999999999
sg4
F0.15049999999999999
sg5
F54.799999999999997
sS'QCD_80-170_EM'
p35
I183722
sS'QCD_250-350_EM'
p36
F556.75
sS'WHToWWW3L_M-125'
p37
F0.019034999999999996
sg6
F1.0
sS'ggHToZZ4L_M-125'
p38
F0.0041271119999999996
sg7
F5.0899999999999999
sg17
F1666.0
sg8
F94.099999999999994
sS'WWZ'
p39
F0.063
sS'ZZ4tau'
p40
F0.076910000000000006
sg9
F32.299999999999997
sg10
F1.28
sS'ttZ'
p41
F0.20799999999999999
sS'ZZZ'
p42
F0.0045999999999999999
sg11
F3532.8000000000002
sS'WGStarLNu2Mu'
p43
F1.9139999999999999
sS'FCNC_M125_t_semilep'
p44
F0.19894895999999998
sS'ttW'
p45
F0.249
sS'ZZ4mu'
p46
F0.076910000000000006
sg28
F1.0
sg14
I31314
sS'TTH_M-125'
p47
F0.1032
sS'QCD_170-250_EM'
p48
I4588
sS'ZZ2mu2tau'
p49
F0.1767
sS'ZZ4e'
p50
F0.076910000000000006
sg15
F244.76400000000001
sS'ZGstar'
p51
F0.5
sS'ttG'
p52
F1.4399999999999999
sg16
F1.0
sS'WZZ'
p53
F0.019199999999999998
sS'ZZJets4L'
p54
F0.092100000000000001
sS'WGStarLNu2E'
p55
F5.8730000000000002
sg18
F159.12
sS'ZZ2e2mu'
p56
F0.1767
sS'QCD_30-80_EM'
p57
F4615893.0
sS'QCD_20-30_EM'
p58
F2920632.0
sg19
F7.7000000000000002
sS't_t-channel'
p59
F55.530000000000001
sg20
F5.9950000000000001
sg21
F1.4215740000000001
sg22
F860.5
sS'ggHToWW2L2Nu_M-125'
p60
F0.37345499999999993
sg23
F0.36499999999999999
sg24
F0.014628599999999997
sS'WWW'
p61
F0.082000000000000003
sg25
F3.4620000000000002
sg26
F1.0
sg27
F1666.0
sS'WbbToLNu'
p62
F39.899999999999999
sS'WGStarLNu2Tau'
p63
F0.33600000000000002
sg12
F1.0
sS'WWG'
p64
F0.52800000000000002
sS'ZZ2e2tau'
p65
F0.1767
sS'QCD_350_EM'
p66
F89.099999999999994
sS'QCD_20_MU'
p67
F84679.0
sg29
F1666.0
sg30
F11.77
ss.(dp0
S'WG'
p1
(I0
I859
I1
I1
S'WG*'
p2
tp3
sS'ZZToEE'
p4
(I2
I413
I0
I1
S'ZZ (ee)'
p5
tp6
sS'RATIO'
p7
(I0
I1
I3002
I21
S'Ratio'
p8
tp9
sS'DATA_ELECTRON'
p10
(I2
I921
I0
I21
S'Observed (ee)'
p11
tp12
sS'tbar_t-channel'
p13
(I2
I596
I1
I1
S'#bar{t} (t-channel)'
p14
tp15
sS'QCD'
p16
(I2
I800
I1
I1
g16
tp17
sS'tbarW'
p18
(I2
I598
I1
I1
S'#bar{t}W'
p19
tp20
sS'WW'
p21
(I2
I412
I0
I1
g21
tp22
sS'GJets_15to30'
p23
(I2
I402
I0
I1
S'gamma+jets'
p24
tp25
sS'tW'
p26
(I2
I599
I1
I1
g26
tp27
sS'ZZToEMu'
p28
(I2
I414
I0
I1
S'ZZ (e#mu)'
p29
tp30
sS'SUM_EFF'
p31
(I1
I600
I3018
I21
S'BG'
p32
tp33
sS'single top'
p34
(I0
I602
I3004
I1
S't'
p35
tp36
sS'WZJets2L2Q'
p37
(I3
I597
I0
I1
S'WZ#rightarrow2l2q'
p38
tp39
sS'DYToTauTau'
p40
(I2
I629
I0
I1
S'Z+jets (#tau#tau)'
p41
tp42
sS'ZbbToLL'
p43
(I2
I624
I1
I1
S'Z+bb'
p44
tp45
sS'WWZ'
p46
(I0
I433
I1
I1
g46
tp47
sS'DATA'
p48
(I2
I1
I0
I21
S'Observed'
p49
tp50
sS'ZZToTauTau'
p51
(I2
I418
I0
I1
S'ZZ (#tau#tau)'
p52
tp53
sS'SIG_EFF'
p54
(I1
I632
I3018
I21
S'Signal'
p55
tp56
sS'ZZJets2L2Q'
p57
(I2
I593
I1
I1
S'ZZ#rightarrow2l2q'
p58
tp59
sS'ttZ'
p60
(I0
I417
I1
I1
S't#bar{t}Z'
p61
tp62
sS'WZJets3LNu'
p63
(I3
I617
I3004
I1
S'WZ#rightarrow3l#nu'
p64
tp65
sS'PhotonJets'
p66
(I2
I632
I0
I1
S'Z+jets (data)'
p67
tp68
sS'ZZZ'
p69
(I0
I435
I1
I1
g69
tp70
sS'ZJets_M-50'
p71
(I0
I633
I1
I1
S'Z+jets (M_{Z/#gamma*} > 50)'
p72
tp73
sS'WGStarLNu2Mu'
p74
(I0
I860
I1
I1
S'WG*#ell#nu2#mu'
p75
tp76
sS'DATA_MUEG'
p77
(I2
I922
I0
I21
S'Observed (e#mu)'
p78
tp79
sS'ZZ4tau'
p80
(I2
I808
I1
I1
S'ZZ#rightarrow 4#tau'
p81
tp82
sS'top'
p83
(I0
I601
I1
I1
S't#bar{t}/t'
p84
tp85
sS'ttW'
p86
(I0
I418
I1
I1
S't#bar{t}W'
p87
tp88
sS'ttV'
p89
(I0
I417
I1
I1
S't#bar{t}V'
p90
tp91
sS'ZZ4mu'
p92
(I2
I810
I1
I1
S'ZZ#rightarrow 4l'
p93
tp94
sS'ZZ4l'
p95
(I0
I921
I1
I1
S'ZZ#rightarrow4l'
p96
tp97
sS'WJets'
p98
(I2
I857
I1
I1
S'W+jets'
p99
tp100
sS'Fakes'
p101
(I2
I632
I3001
I1
g101
tp102
sS'ZZToMuTau'
p103
(I2
I414
I0
I1
S'ZZ (#mu#tau)'
p104
tp105
sS'ZZ2mu2tau'
p106
(I2
I805
I1
I1
S'ZZ#rightarrow 2#mu2#tau'
p107
tp108
sS'ZZ4e'
p109
(I2
I809
I1
I1
S'ZZ#rightarrow 4e'
p110
tp111
sS'ZJets_M-10To50'
p112
(I0
I634
I1
I1
S'Z+jets (M_{Z/#gamma*} < 50)'
p113
tp114
sS'ZGstar'
p115
(I2
I603
I0
I1
S'Z#gamma^{*}'
p116
tp117
sS'ttG'
p118
(I0
I419
I1
I1
S't#bar{t}G'
p119
tp120
sS'DATA_MUON'
p121
(I2
I920
I0
I21
S'Observed (#mu#mu)'
p122
tp123
sS'WZZ'
p124
(I0
I434
I1
I1
g124
tp125
sS'ZZJets4L'
p126
(I2
I602
I1
I1
g96
tp127
sS'WGStarLNu2E'
p128
(I0
I860
I1
I1
S'WG*#ell#nu2e'
p129
tp130
sS'ZG'
p131
(I0
I623
I1
I1
S'Z#gamma'
p132
tp133
sS'WZ'
p134
(I2
I909
I0
I1
g134
tp135
sS'WWW'
p136
(I0
I432
I1
I1
g136
tp137
sS'QCD_EM'
p138
(I2
I801
I1
I1
S'QCD e#gamma'
p139
tp140
sS'ZZToMuMu'
p141
(I2
I419
I0
I1
S'ZZ#rightarrow 4l '
p142
tp143
sS'FCNH'
p144
(I3
I903
I2
I22
g144
tp145
sS'ZZ'
p146
(I2
I804
I0
I1
g146
tp147
sS't_t-channel'
p148
(I2
I597
I1
I1
S't (t-channel)'
p149
tp150
sS'WWJets2L2Nu'
p151
(I0
I921
I1
I1
S'WW#rightarrow2l2#nu'
p152
tp153
sS'ZJets'
p154
(I0
I632
I1
I1
S'Z+jets'
p155
tp156
sS'ttbar'
p157
(I0
I600
I1
I1
S't#bar{t}'
p158
tp159
sS'ZZJets2L2Nu'
p160
(I2
I419
I1
I1
S'ZZ#rightarrow2l2#nu'
p161
tp162
sS'ZZ2e2mu'
p163
(I2
I807
I1
I1
S'ZZ#rightarrow 2e2#mu'
p164
tp165
sS'Diboson'
p166
(I0
I921
I1
I1
S'diboson'
p167
tp168
sS'ZGToNuNu'
p169
(I2
I603
I0
I1
S'ZG->#nu#nu'
p170
tp171
sS'higgs'
p172
(I2
I603
I0
I1
g172
tp173
sS'Triboson'
p174
(I0
I432
I1
I1
S'triboson'
p175
tp176
sS'WW/ZZ'
p177
(I0
I921
I1
I1
g177
tp178
sS'DYToEE'
p179
(I2
I632
I0
I1
S'Z+jets (ee)'
p180
tp181
sS'WbbToLNu'
p182
(I2
I858
I1
I1
S'W+bb'
p183
tp184
sS'WGStarLNu2Tau'
p185
(I0
I860
I1
I1
S'WG*#ell#nu2#tau'
p186
tp187
sS'WWG'
p188
(I0
I436
I1
I1
g188
tp189
sS'ZZ2e2tau'
p190
(I2
I806
I1
I1
S'ZZ#rightarrow 2e2#tau'
p191
tp192
sS'QCD_20_MU'
p193
(I2
I799
I1
I1
S'QCD #mu'
p194
tp195
sS'DYToMuMu'
p196
(I2
I632
I0
I1
S'Z+jets (#mu#mu)'
p197
tp198
sS'VJets'
p199
(I0
I632
I1
I1
S'V+jets'
p200
tp201
sS'ZZToETau'
p202
(I2
I414
I0
I1
S'ZZ (e#tau)'
p203
tp204
sS'BGERROR'
p205
(I0
I1
I3018
I0
S'BG error'
p206
tp207
sS'QFlips'
p208
(I2
I602
I3001
I1
g208
tp209
s.(dp0
S'FAKE_BG'
p1
(lp2
S'ZJets_M-50'
p3
aS'ZJets_M-10To50'
p4
aS'ttbar'
p5
aS'tbarW'
p6
aS'tW'
p7
aS'WWJets2L2Nu'
p8
aS'ZZJets2L2Nu'
p9
aS'ZZJets2L2Q'
p10
asS'FCNH'
p11
(lp12
S'FCNC_M125_t'
p13
aS'FCNC_M125_tbar'
p14
aS'FCNC_M125_t_semilep'
p15
asS'higgs'
p16
(lp17
S'ggHToZZ4L_M-125'
p18
aS'WHToWWW3L_M-125'
p19
aS'ggHToWW2L2Nu_M-125'
p20
aS'TTH_M-125'
p21
asS'top'
p22
(lp23
g5
ag7
ag6
aS't_t-channel'
p24
aS'tbar_t-channel'
p25
asS'QCD'
p26
(lp27
S'QCD_20_MU'
p28
aS'QCD_20-30_EM'
p29
aS'QCD_30-80_EM'
p30
aS'QCD_80-170_EM'
p31
aS'QCD_170-250_EM'
p32
aS'QCD_250-350_EM'
p33
aS'QCD_350_EM'
p34
asS'WW/ZZ'
p35
(lp36
S'ZZ4mu'
p37
aS'ZZ4e'
p38
aS'ZZ4tau'
p39
aS'ZZ2e2mu'
p40
aS'ZZ2mu2tau'
p41
aS'ZZ2e2tau'
p42
ag8
ag9
asS'ttV'
p43
(lp44
S'ttZ'
p45
aS'ttW'
p46
aS'ttG'
p47
asS'QCD_EM'
p48
(lp49
g29
ag30
ag31
ag32
ag33
ag34
asS'ZZ4l'
p50
(lp51
g37
ag38
ag39
ag40
ag41
ag42
asS'Diboson'
p52
(lp53
g37
ag38
ag39
ag40
ag41
ag42
ag8
ag9
aS'WZJets3LNu'
p54
asS'WGStar'
p55
(lp56
S'WGStarLNu2E'
p57
aS'WGStarLNu2Mu'
p58
aS'WGStarLNu2Tau'
p59
asS'single top'
p60
(lp61
g7
ag6
ag24
ag25
asS'ZJets'
p62
(lp63
g3
ag4
asS'DATA'
p64
(lp65
S'DATA_MUON'
p66
aS'DATA_ELECTRON'
p67
aS'DATA_MUEG'
p68
asS'Triboson'
p69
(lp70
S'WWW'
p71
aS'WWZ'
p72
aS'WZZ'
p73
aS'ZZZ'
p74
aS'WWG'
p75
asS'VJets'
p76
(lp77
g3
ag4
aS'WJets'
p78
as.(dp0
S'3l_emumu'
p1
S'e#mu#mu'
p2
sS'ss_mumu'
p3
S'#mu^{#pm}#mu^{#pm}'
p4
sS'low_met'
p5
S'MET < 20'
p6
sS'3l_SSSF'
p7
S'(l^{#pm}l^{#pm})l'
p8
sS'inclusive'
p9
g9
sS'os_emu'
p10
S'e^{#pm}mu^{#mp}'
p11
sS'3l_eemu'
p12
S'ee#mu'
p13
sS'3l_inclusive'
p14
S'3l inclusive'
p15
sS'ss_emu'
p16
S'e^{#pm}#mu^{#pm}'
p17
sS'3l_eee'
p18
S'eee'
p19
sS'ss_ee'
p20
S'e^{#pm}e^{#pm}'
p21
sS'os_mumu'
p22
S'#mu^{#pm}#mu^{#mp}'
p23
sS'high_met'
p24
S'45 < MET < 80'
p25
sS'os_inclusive'
p26
S'os inclusive'
p27
sS'3l_OSSF'
p28
S'(l^{#pm}l^{#mp})l'
p29
sS'ss_inclusive'
p30
S'ss inclusive'
p31
sS'os_ee'
p32
S'e^{#pm}e^{#mp}'
p33
sS'3l_mumumu'
p34
S'#mu#mu#mu'
p35
s.