(dp0
S'2011'
p1
(dp2
S'tW'
p3
F7.8700000000000001
sS'GluGluWW'
p4
F0.15049999999999999
sS'WW'
p5
F4.5099999999999998
sS'QFlips'
p6
F1.0
sS'WZJets2L2Q'
p7
F1.8329
sS'ZbbToLL'
p8
F304.0
sS'WZ'
p9
F0.59599999999999997
sS'ZZJets2L2Q'
p10
F0.62460000000000004
sS'ZJets_M-50'
p11
F3048.0
sS'DATA_MUEG'
p12
F1.0
sS'FCNC_M125_t'
p13
F0.0040000000000000001
sS'WJets'
p14
I31314
sS'ttbar'
p15
I165
sS'DATA_MUON'
p16
F1.0
sS'DYToTauTau'
p17
F1666.0
sS'ZG'
p18
F159.12
sS'ZZ'
p19
F0.214
sS'WWJets2L2Nu'
p20
F4.7830000000000004
sS'WZJets3LNu'
p21
F0.85599999999999998
sS'ZJets_M-10To50'
p22
F742.60000000000002
sS'ZZJets2L2Nu'
p23
F0.1787
sS'FCNC_M125_tbar'
p24
F0.0040000000000000001
sS'ZGToNuNu'
p25
F3.4620000000000002
sS'DATA_ELECTRON'
p26
F1.0
sS'DYToEE'
p27
F1666.0
sS'Fakes'
p28
F1.0
sS'DYToMuMu'
p29
F1666.0
sS'tbarW'
p30
F7.8700000000000001
ssS'2012'
p31
(dp32
S'WG'
p33
F1000.0
sS'Fakes_e'
p34
F1.0
sg13
F0.034223099788799997
sS'Fakes_ll'
p35
F1.0
sS'FCNC_M125_t_TauTau'
p36
F0.095528160000000001
sg3
F11.77
sS'tbar_t-channel'
p37
F30.699999999999999
sg4
F0.15049999999999999
sg5
F54.799999999999997
sS'QCD_80-170_EM'
p38
I183722
sS'QCD_250-350_EM'
p39
F556.75
sS'WHToWWW3L_M-125'
p40
F0.019034999999999996
sg6
F1.0
sS'ggHToZZ4L_M-125'
p41
F0.0041271119999999996
sg7
F5.0899999999999999
sg17
F1666.0
sg8
F94.099999999999994
sS'WWZ'
p42
F0.063
sS'ZZ4tau'
p43
F0.076910000000000006
sg9
F32.299999999999997
sg10
F1.28
sS'ttZ'
p44
F0.20599999999999999
sS'ZZZ'
p45
F0.0045999999999999999
sg11
F3532.8000000000002
sS'WGStarLNu2Mu'
p46
F1.9139999999999999
sS'FCNC_M125_t_semilep'
p47
F0.21421125423360002
sS'ttW'
p48
F0.249
sS'ZZ4mu'
p49
F0.076910000000000006
sg28
F1.0
sg14
I31314
sS'TTH_M-125'
p50
F0.1032
sS'QCD_170-250_EM'
p51
I4588
sS'ZZ2mu2tau'
p52
F0.1767
sS'ZZ4e'
p53
F0.076910000000000006
sg15
I234
sS'ZGstar'
p54
F0.5
sS'ttG'
p55
F2.1659999999999999
sg16
F1.0
sS'Fakes_emu'
p56
F1.0
sS'WZZ'
p57
F0.019199999999999998
sS'ZZJets4L'
p58
F0.092100000000000001
sS'WGStarLNu2E'
p59
F5.8730000000000002
sg18
F159.12
sS'ZZ2e2mu'
p60
F0.1767
sS'QCD_30-80_EM'
p61
F4615893.0
sS'QCD_20-30_EM'
p62
F2920632.0
sg19
F7.7000000000000002
sS'Fakes_mu'
p63
F1.0
sS't_t-channel'
p64
F55.530000000000001
sg20
F5.9950000000000001
sg21
F1.0860000000000001
sg22
F860.5
sS'ggHToWW2L2Nu_M-125'
p65
F0.37345499999999993
sg23
F0.36499999999999999
sg24
F0.017111549894399999
sS'WWW'
p66
F0.082000000000000003
sS'Fakes_mumu'
p67
F1.0
sg25
F3.4620000000000002
sg26
F1.0
sg27
F1666.0
sS'WbbToLNu'
p68
F39.899999999999999
sS'WGStarLNu2Tau'
p69
F0.33600000000000002
sg12
F1.0
sS'WWG'
p70
F0.52800000000000002
sS'ZZ2e2tau'
p71
F0.1767
sS'QCD_350_EM'
p72
F89.099999999999994
sS'QCD_20_MU'
p73
F84679.0
sS'FCNC_M125_t_ZZ'
p74
F0.0076058611200000006
sg29
F1666.0
sg30
F11.77
sS'Fakes_ee'
p75
F1.0
ss.(dp0
S'WG'
p1
(I0
I859
I1
I1
S'WG*'
p2
tp3
sS'VV2l'
p4
(I0
I922
I1
I1
S'VV#rightarrow2l2x'
p5
tp6
sS'RATIO'
p7
(I0
I1
I3002
I21
S'Ratio'
p8
tp9
sS'tW'
p10
(I2
I599
I1
I1
g10
tp11
sS'PROMPT_2l'
p12
(I2
I632
I3001
I21
S'Prompt'
p13
tp14
sS'WW'
p15
(I2
I412
I0
I1
g15
tp16
sS'QFlips'
p17
(I2
I602
I3001
I1
g17
tp18
sS'WZJets2L2Q'
p19
(I3
I597
I0
I1
S'WZ#rightarrow2l2q'
p20
tp21
sS'GJets_15to30'
p22
(I2
I402
I0
I1
S'gamma+jets'
p23
tp24
sS'ZZ4tau'
p25
(I2
I808
I1
I1
S'ZZ#rightarrow 4#tau'
p26
tp27
sS'WZ'
p28
(I2
I909
I0
I1
g28
tp29
sS'ttZ'
p30
(I0
I417
I1
I1
S't#bar{t}Z'
p31
tp32
sS'ZJets_M-50'
p33
(I0
I633
I1
I1
S'Z+jets (M_{Z/#gamma*} > 50)'
p34
tp35
sS'ttW'
p36
(I0
I418
I1
I1
S't#bar{t}W'
p37
tp38
sS'ttV'
p39
(I0
I417
I1
I1
S't#bar{t}V'
p40
tp41
sS'ZZ4mu'
p42
(I2
I810
I1
I1
S'ZZ#rightarrow 4#mu'
p43
tp44
sS'ZJets_M-10To50'
p45
(I0
I634
I1
I1
S'Z+jets (M_{Z/#gamma*} < 50)'
p46
tp47
sS'ZGstar'
p48
(I2
I603
I0
I1
S'Z#gamma^{*}'
p49
tp50
sS'ttG'
p51
(I0
I419
I1
I1
S't#bar{t}G'
p52
tp53
sS'VJets'
p54
(I0
I632
I1
I1
S'V+jets'
p55
tp56
sS'Fakes_emu'
p57
(I2
I875
I3001
I1
S'Fakes e#mu'
p58
tp59
sS'DYToTauTau'
p60
(I2
I629
I0
I1
S'Z+jets (#tau#tau)'
p61
tp62
sS'PROMPT_3l'
p63
(I2
I632
I3001
I21
g13
tp64
sS'PASS'
p65
(I2
I1
I0
I23
S'Pass'
p66
tp67
sS'WZJets3LNu'
p68
(I3
I617
I1
I1
S'WZ#rightarrow3l#nu'
p69
tp70
sS'DATA_ELECTRON'
p71
(I2
I921
I0
I21
S'Observed (ee)'
p72
tp73
sS'DYToEE'
p74
(I2
I632
I0
I1
S'Z+jets (ee)'
p75
tp76
sS'WGStarLNu2Tau'
p77
(I0
I860
I1
I1
S'WG*#ell#nu2#tau'
p78
tp79
sS'BGERROR'
p80
(I0
I1
I3018
I0
S'BG uncertainty'
p81
tp82
sS'Fakes_e'
p83
(I2
I434
I3001
I20
S'Fakes e'
p84
tp85
sS'WbbToLNu'
p86
(I2
I858
I1
I1
S'W+bb'
p87
tp88
sS'ZZToTauTau'
p89
(I2
I418
I0
I1
S'ZZ (#tau#tau)'
p90
tp91
sS'WGStarLNu2Mu'
p92
(I0
I860
I1
I1
S'WG*#ell#nu2#mu'
p93
tp94
sS'DATA_MUEG'
p95
(I2
I922
I0
I21
S'Observed (e#mu)'
p96
tp97
sS'ZZToETau'
p98
(I2
I414
I0
I1
S'ZZ (e#tau)'
p99
tp100
sS'SIG_EFF'
p101
(I2
I632
I1
I21
S'Signal'
p102
tp103
sS'FCNH'
p104
(I3
I635
I0
I20
g104
tp105
sS'ZZJets4L'
p106
(I2
I602
I1
I1
S'ZZ#rightarrow4l'
p107
tp108
sS'WGStarLNu2E'
p109
(I0
I860
I1
I1
S'WG*#ell#nu2e'
p110
tp111
sS'ZG'
p112
(I0
I623
I1
I1
S'Z#gamma'
p113
tp114
sS'ZZ'
p115
(I2
I804
I0
I1
g115
tp116
sS'WWJets2L2Nu'
p117
(I0
I921
I1
I1
S'WW#rightarrow2l2#nu'
p118
tp119
sS'WWW'
p120
(I0
I432
I1
I1
g120
tp121
sS'ZZToMuMu'
p122
(I2
I419
I0
I1
S'ZZ#rightarrow 4l '
p123
tp124
sS'Triboson'
p125
(I0
I432
I1
I1
S'triboson'
p126
tp127
sS'WWZ'
p128
(I0
I433
I1
I1
g128
tp129
sS'WWG'
p130
(I0
I436
I1
I1
g130
tp131
sS'Fakes_ll'
p132
(I2
I889
I3001
I1
S'Fakes ll'
p133
tp134
sS'tbar_t-channel'
p135
(I2
I596
I1
I1
S'#bar{t} (t-channel)'
p136
tp137
sS'FAKES_3l'
p138
(I2
I600
I3001
I1
g13
tp139
sS'SUM_EFF'
p140
(I2
I600
I1
I21
S'BG'
p141
tp142
sS'single top'
p143
(I0
I602
I3004
I1
S't'
p144
tp145
sS'ZZJets2L2Q'
p146
(I2
I593
I1
I1
S'ZZ#rightarrow2l2q'
p147
tp148
sS'ZZZ'
p149
(I0
I435
I1
I1
g149
tp150
sS'top'
p151
(I0
I601
I1
I1
S't#bar{t}/t'
p152
tp153
sS'Irreducible'
p154
(I2
I600
I0
I21
g154
tp155
sS'ZZ2e2mu'
p156
(I2
I807
I1
I1
S'ZZ#rightarrow 2e2#mu'
p157
tp158
sS'Fakes_mu'
p159
(I2
I619
I3001
I20
S'Fakes #mu'
p160
tp161
sS'ZJets'
p162
(I0
I632
I1
I1
S'Z+jets'
p163
tp164
sS'Fakes_mumu'
p165
(I2
I620
I3001
I1
S'Fakes #mu#mu'
p166
tp167
sS'WW/ZZ'
p168
(I0
I921
I1
I1
g168
tp169
sS'Fakes'
p170
(I2
I1
I3001
I20
g170
tp171
sS'ZZ2e2tau'
p172
(I2
I806
I1
I1
S'ZZ#rightarrow 2e2#tau'
p173
tp174
sS'DATA_MUON'
p175
(I2
I920
I0
I21
S'Observed (#mu#mu)'
p176
tp177
sS'Fakes_ee'
p178
(I2
I436
I3001
I1
S'Fakes ee'
p179
tp180
sS'ZZToEE'
p181
(I2
I413
I0
I1
S'ZZ (ee)'
p182
tp183
sS'ZZ2mu2tau'
p184
(I2
I805
I1
I1
S'ZZ#rightarrow 2#mu2#tau'
p185
tp186
sS'ZZToEMu'
p187
(I2
I414
I0
I1
S'ZZ (e#mu)'
p188
tp189
sS'QCD'
p190
(I2
I800
I1
I1
g190
tp191
sS'WZZ'
p192
(I0
I434
I1
I1
g192
tp193
sS'ZbbToLL'
p194
(I2
I624
I1
I1
S'Z+bb'
p195
tp196
sS'DATA'
p197
(I2
I1
I0
I20
S'Data'
p198
tp199
sS'PhotonJets'
p200
(I2
I632
I0
I1
S'Z+jets (data)'
p201
tp202
sS'ZZ4l'
p203
(I0
I921
I1
I1
g107
tp204
sS'WJets'
p205
(I2
I857
I1
I1
S'W+jets'
p206
tp207
sS'ZZToMuTau'
p208
(I2
I414
I0
I1
S'ZZ (#mu#tau)'
p209
tp210
sS'ZZ4e'
p211
(I2
I809
I1
I1
S'ZZ#rightarrow 4e'
p212
tp213
sS'ttbar'
p214
(I0
I600
I1
I1
S't#bar{t}'
p215
tp216
sS'QCD_20_MU'
p217
(I2
I799
I1
I1
S'QCD #mu'
p218
tp219
sS'QCD_EM'
p220
(I2
I801
I1
I1
S'QCD e#gamma'
p221
tp222
sS'FAKES_2l'
p223
(I2
I632
I3001
I1
g13
tp224
sS't_t-channel'
p225
(I2
I597
I1
I1
S't (t-channel)'
p226
tp227
sS'FAKEABLE'
p228
(I2
I600
I0
I21
S'Fakeable'
p229
tp230
sS'ZZJets2L2Nu'
p231
(I2
I419
I1
I1
S'ZZ#rightarrow2l2#nu'
p232
tp233
sS'Diboson'
p234
(I0
I921
I1
I1
S'diboson'
p235
tp236
sS'ZGToNuNu'
p237
(I2
I603
I0
I1
S'ZG->#nu#nu'
p238
tp239
sS'higgs'
p240
(I2
I603
I0
I1
g240
tp241
sS'DATA_FAKES'
p242
(I2
I1
I3001
I21
g198
tp243
sS'SIGNIFICANCE'
p244
(I2
I416
I1
I21
S'Signficance'
p245
tp246
sS'DYToMuMu'
p247
(I2
I632
I0
I1
S'Z+jets (#mu#mu)'
p248
tp249
sS'tbarW'
p250
(I2
I598
I1
I1
S'#bar{t}W'
p251
tp252
s.(dp0
S'VV2l'
p1
(lp2
S'ZZJets2L2Nu'
p3
aS'ZZJets2L2Q'
p4
aS'WWJets2L2Nu'
p5
ag3
aS'WZJets2L2Q'
p6
asS'Remove_ss'
p7
(lp8
S'ZJets_M-50'
p9
aS'ZJets_M-10To50'
p10
aS'ttbar'
p11
ag5
ag3
asS'FAKES_2l'
p12
(lp13
S'WbbToLNu'
p14
ag9
ag10
ag11
aS'tbarW'
p15
aS'tW'
p16
ag5
ag3
ag4
asS'PROMPT_2l'
p17
g13
sS'FAKES_3l'
p18
(lp19
S'WZJets3LNu'
p20
asS'QCD'
p21
(lp22
S'QCD_20_MU'
p23
aS'QCD_20-30_EM'
p24
aS'QCD_30-80_EM'
p25
aS'QCD_80-170_EM'
p26
aS'QCD_170-250_EM'
p27
aS'QCD_250-350_EM'
p28
aS'QCD_350_EM'
p29
asS'PASS'
p30
(lp31
S'DATA_MUON'
p32
aS'DATA_ELECTRON'
p33
aS'DATA_MUEG'
p34
asS'DATA'
p35
g31
sS'FAKEABLE'
p36
g31
sS'top'
p37
(lp38
g11
ag16
ag15
aS't_t-channel'
p39
aS'tbar_t-channel'
p40
asS'ttV'
p41
(lp42
S'ttZ'
p43
aS'ttW'
p44
asS'ZZ4l'
p45
(lp46
S'ZZ4mu'
p47
aS'ZZ4e'
p48
aS'ZZ2e2mu'
p49
aS'ZZ2mu2tau'
p50
aS'ZZ2e2tau'
p51
asS'WGStar'
p52
(lp53
S'WGStarLNu2E'
p54
aS'WGStarLNu2Mu'
p55
aS'WGStarLNu2Tau'
p56
asS'FCNH'
p57
(lp58
S'FCNC_M125_t'
p59
aS'FCNC_M125_t_semilep'
p60
aS'FCNC_M125_t_ZZ'
p61
aS'FCNC_M125_t_TauTau'
p62
asS'VJets'
p63
(lp64
g9
ag10
aS'WJets'
p65
asS'Irreducible'
p66
(lp67
S'ggHToZZ4L_M-125'
p68
aS'WHToWWW3L_M-125'
p69
aS'ggHToWW2L2Nu_M-125'
p70
aS'TTH_M-125'
p71
ag47
ag48
aS'ZZ4tau'
p72
ag49
ag50
ag51
ag43
ag44
aS'ttG'
p73
aS'WWW'
p74
aS'WWZ'
p75
aS'WZZ'
p76
aS'ZZZ'
p77
aS'WWG'
p78
ag20
asS'PROMPT_3l'
p79
g19
sS'QCD_EM'
p80
(lp81
g24
ag25
ag26
ag27
ag28
ag29
asS'Remove_3l'
p82
(lp83
g20
ag47
ag48
ag72
ag49
ag50
ag51
ag43
ag44
ag74
ag75
ag76
ag77
asS'ZJets'
p84
(lp85
g9
ag10
asS'Diboson'
p86
(lp87
g47
ag48
ag72
ag49
ag50
ag51
ag5
ag3
ag20
asS'higgs'
p88
(lp89
g68
ag69
ag70
ag71
asS'Triboson'
p90
(lp91
g74
ag75
ag76
ag77
ag78
asS'WW/ZZ'
p92
(lp93
g47
ag48
ag72
ag49
ag50
ag51
ag5
ag3
asS'DATA_FAKES'
p94
g31
sS'Fakes'
p95
(lp96
S'Fakes_e'
p97
aS'Fakes_mu'
p98
aS'Fakes_ll'
p99
asS'single top'
p100
(lp101
g16
ag15
ag39
ag40
as.(dp0
S'3l_inclusive'
p1
S'3l inclusive'
p2
sS'inclusive'
p3
g3
sS'QCD2l_high_met'
p4
S'QCD ll (45 < MET < 80)'
p5
sS'ZPlusJet_low_met'
p6
S'Z+jet (MET < 20)'
p7
sS'QCD2l_low_met'
p8
S'QCD ll (MET < 20)'
p9
sS'os_inclusive'
p10
S'os inclusive'
p11
sS'3l_mumumu'
p12
S'#mu#mu#mu'
p13
sS'3l_emumu'
p14
S'e#mu#mu'
p15
sS'QCD2l_inclusive'
p16
S'QCD ll'
p17
sS'os_emu'
p18
S'e^{#pm}mu^{#mp}'
p19
sS'high_met'
p20
S'45 < MET < 80'
p21
sS'low_met'
p22
S'MET < 20'
p23
sS'os_ee'
p24
S'e^{#pm}e^{#mp}'
p25
sS'3l_SSSF'
p26
S'(l^{#pm}l^{#pm})l'
p27
sS'ZPlusJet_inclusive'
p28
S'Z+jet'
p29
sS'ss_emu'
p30
S'e^{#pm}#mu^{#pm}'
p31
sS'ZPlusJet_high_met'
p32
S'Z+jet (45 < MET < 80)'
p33
sS'ss_mumu'
p34
S'#mu^{#pm}#mu^{#pm}'
p35
sS'3l_eemu'
p36
S'ee#mu'
p37
sS'os_mumu'
p38
S'#mu^{#pm}#mu^{#mp}'
p39
sS'ss_inclusive'
p40
S'ss inclusive'
p41
sS'ss_ee'
p42
S'e^{#pm}e^{#pm}'
p43
sS'3l_OSSF'
p44
S'(l^{#pm}l^{#mp})l'
p45
sS'3l_eee'
p46
S'eee'
p47
s.