(dp0
S'2011'
p1
(dp2
S'tW'
p3
F7.8700000000000001
sS'GluGluWW'
p4
F0.15049999999999999
sS'WW'
p5
F4.5099999999999998
sS'QFlips'
p6
F1.0
sS'WZJets2L2Q'
p7
F1.8329
sS'ZbbToLL'
p8
F304.0
sS'WZ'
p9
F0.59599999999999997
sS'ZZJets2L2Q'
p10
F0.62460000000000004
sS'ZJets_M-50'
p11
F3048.0
sS'DATA_MUEG'
p12
F1.0
sS'FCNC_M125_t'
p13
F0.0040000000000000001
sS'WJets'
p14
I31314
sS'ttbar'
p15
I165
sS'DATA_MUON'
p16
F1.0
sS'DYToTauTau'
p17
F1666.0
sS'ZG'
p18
F159.12
sS'ZZ'
p19
F0.214
sS'WWJets2L2Nu'
p20
F4.7830000000000004
sS'WZJets3LNu'
p21
F0.85599999999999998
sS'ZJets_M-10To50'
p22
F742.60000000000002
sS'ZZJets2L2Nu'
p23
F0.1787
sS'FCNC_M125_tbar'
p24
F0.0040000000000000001
sS'ZGToNuNu'
p25
F3.4620000000000002
sS'DATA_ELECTRON'
p26
F1.0
sS'DYToEE'
p27
F1666.0
sS'Fakes'
p28
F1.0
sS'DYToMuMu'
p29
F1666.0
sS'tbarW'
p30
F7.8700000000000001
ssS'2012'
p31
(dp32
S'WG'
p33
F1000.0
sS'Fakes_e'
p34
F1.0
sg13
F0.034223099788799997
sS'FCNC_M125_t_TauTau'
p35
F0.095528160000000001
sg3
F11.77
sS'tbar_t-channel'
p36
F30.699999999999999
sg4
F0.15049999999999999
sg5
F54.799999999999997
sS'QCD_80-170_EM'
p37
I183722
sS'QCD_250-350_EM'
p38
F556.75
sS'WHToWWW3L_M-125'
p39
F0.019034999999999996
sg6
F1.0
sS'ggHToZZ4L_M-125'
p40
F0.0041271119999999996
sg7
F5.0899999999999999
sg17
F1666.0
sg8
F94.099999999999994
sS'WWZ'
p41
F0.063
sS'ZZ4tau'
p42
F0.076910000000000006
sg9
F32.299999999999997
sg10
F1.28
sS'ttZ'
p43
F0.20599999999999999
sS'ZZZ'
p44
F0.0045999999999999999
sg11
F3532.8000000000002
sS'WGStarLNu2Mu'
p45
F1.9139999999999999
sS'FCNC_M125_t_semilep'
p46
F0.21421125423360002
sS'ttW'
p47
F0.249
sS'ZZ4mu'
p48
F0.076910000000000006
sg28
F1.0
sg14
I31314
sS'TTH_M-125'
p49
F0.1032
sS'QCD_170-250_EM'
p50
I4588
sS'ZZ2mu2tau'
p51
F0.1767
sS'ZZ4e'
p52
F0.076910000000000006
sg15
I234
sS'ZGstar'
p53
F0.5
sS'ttG'
p54
F2.1659999999999999
sg16
F1.0
sS'Fakes_emu'
p55
F1.0
sS'WZZ'
p56
F0.019199999999999998
sS'ZZJets4L'
p57
F0.092100000000000001
sS'WGStarLNu2E'
p58
F5.8730000000000002
sg18
F159.12
sS'ZZ2e2mu'
p59
F0.1767
sS'QCD_30-80_EM'
p60
F4615893.0
sS'QCD_20-30_EM'
p61
F2920632.0
sg19
F7.7000000000000002
sS'Fakes_mu'
p62
F1.0
sS't_t-channel'
p63
F55.530000000000001
sg20
F5.9950000000000001
sg21
F1.0860000000000001
sg22
F860.5
sS'ggHToWW2L2Nu_M-125'
p64
F0.37345499999999993
sg23
F0.36499999999999999
sg24
F0.017111549894399999
sS'WWW'
p65
F0.082000000000000003
sS'Fakes_mumu'
p66
F1.0
sg25
F3.4620000000000002
sg26
F1.0
sg27
F1666.0
sS'WbbToLNu'
p67
F39.899999999999999
sS'WGStarLNu2Tau'
p68
F0.33600000000000002
sg12
F1.0
sS'WWG'
p69
F0.52800000000000002
sS'ZZ2e2tau'
p70
F0.1767
sS'QCD_350_EM'
p71
F89.099999999999994
sS'QCD_20_MU'
p72
F84679.0
sS'FCNC_M125_t_ZZ'
p73
F0.0076058611200000006
sg29
F1666.0
sg30
F11.77
sS'Fakes_ee'
p74
F1.0
ss.(dp0
S'WG'
p1
(I0
I859
I1
I1
S'WG*'
p2
tp3
sS'RATIO'
p4
(I0
I1
I3002
I21
S'Ratio'
p5
tp6
sS'tW'
p7
(I2
I599
I1
I1
g7
tp8
sS'PROMPT_2l'
p9
(I2
I632
I3001
I21
S'Prompt'
p10
tp11
sS'WW'
p12
(I2
I412
I0
I1
g12
tp13
sS'QFlips'
p14
(I2
I602
I3001
I1
g14
tp15
sS'WZJets2L2Q'
p16
(I3
I597
I0
I1
S'WZ#rightarrow2l2q'
p17
tp18
sS'GJets_15to30'
p19
(I2
I402
I0
I1
S'gamma+jets'
p20
tp21
sS'ZZ4tau'
p22
(I2
I808
I1
I1
S'ZZ#rightarrow 4#tau'
p23
tp24
sS'WZ'
p25
(I2
I909
I0
I1
g25
tp26
sS'ttZ'
p27
(I0
I417
I1
I1
S't#bar{t}Z'
p28
tp29
sS'ZJets_M-50'
p30
(I0
I633
I1
I1
S'Z+jets (M_{Z/#gamma*} > 50)'
p31
tp32
sS'ttW'
p33
(I0
I418
I1
I1
S't#bar{t}W'
p34
tp35
sS'ttV'
p36
(I0
I417
I1
I1
S't#bar{t}V'
p37
tp38
sS'ZZ4mu'
p39
(I2
I810
I1
I1
S'ZZ#rightarrow 4#mu'
p40
tp41
sS'ZJets_M-10To50'
p42
(I0
I634
I1
I1
S'Z+jets (M_{Z/#gamma*} < 50)'
p43
tp44
sS'ZGstar'
p45
(I2
I603
I0
I1
S'Z#gamma^{*}'
p46
tp47
sS'ttG'
p48
(I0
I419
I1
I1
S't#bar{t}G'
p49
tp50
sS'VJets'
p51
(I0
I632
I1
I1
S'V+jets'
p52
tp53
sS'Fakes_emu'
p54
(I2
I875
I3001
I1
S'Fakes e#mu'
p55
tp56
sS'DYToTauTau'
p57
(I2
I629
I0
I1
S'Z+jets (#tau#tau)'
p58
tp59
sS'PROMPT_3l'
p60
(I2
I632
I3001
I21
g10
tp61
sS'PASS'
p62
(I2
I1
I0
I23
S'Pass'
p63
tp64
sS'WZJets3LNu'
p65
(I3
I617
I1
I1
S'WZ#rightarrow3l#nu'
p66
tp67
sS'DATA_ELECTRON'
p68
(I2
I921
I0
I21
S'Observed (ee)'
p69
tp70
sS'DYToEE'
p71
(I2
I632
I0
I1
S'Z+jets (ee)'
p72
tp73
sS'WGStarLNu2Tau'
p74
(I0
I860
I1
I1
S'WG*#ell#nu2#tau'
p75
tp76
sS'BGERROR'
p77
(I0
I1
I3018
I0
S'BG uncertainty'
p78
tp79
sS'Fakes_e'
p80
(I2
I434
I3001
I20
S'Fakes e'
p81
tp82
sS'Fakes'
p83
(I2
I1
I3001
I20
g83
tp84
sS'ZZToTauTau'
p85
(I2
I418
I0
I1
S'ZZ (#tau#tau)'
p86
tp87
sS'WGStarLNu2Mu'
p88
(I0
I860
I1
I1
S'WG*#ell#nu2#mu'
p89
tp90
sS'DATA_MUEG'
p91
(I2
I922
I0
I21
S'Observed (e#mu)'
p92
tp93
sS'ZZToETau'
p94
(I2
I414
I0
I1
S'ZZ (e#tau)'
p95
tp96
sS'SIG_EFF'
p97
(I2
I632
I1
I21
S'Signal'
p98
tp99
sS'FCNH'
p100
(I3
I635
I0
I20
g100
tp101
sS'ZZJets4L'
p102
(I2
I602
I1
I1
S'ZZ#rightarrow4l'
p103
tp104
sS'WGStarLNu2E'
p105
(I0
I860
I1
I1
S'WG*#ell#nu2e'
p106
tp107
sS'ZG'
p108
(I0
I623
I1
I1
S'Z#gamma'
p109
tp110
sS'ZZ'
p111
(I2
I804
I0
I1
g111
tp112
sS'WWJets2L2Nu'
p113
(I0
I921
I1
I1
S'WW#rightarrow2l2#nu'
p114
tp115
sS'WWW'
p116
(I0
I432
I1
I1
g116
tp117
sS'ZZToMuMu'
p118
(I2
I419
I0
I1
S'ZZ#rightarrow 4l '
p119
tp120
sS'Triboson'
p121
(I0
I432
I1
I1
S'triboson'
p122
tp123
sS'WWZ'
p124
(I0
I433
I1
I1
g124
tp125
sS'WWG'
p126
(I0
I436
I1
I1
g126
tp127
sS'tbar_t-channel'
p128
(I2
I596
I1
I1
S'#bar{t} (t-channel)'
p129
tp130
sS'FAKES_3l'
p131
(I2
I600
I3001
I1
g10
tp132
sS'SUM_EFF'
p133
(I2
I600
I1
I21
S'BG'
p134
tp135
sS'single top'
p136
(I0
I602
I3004
I1
S't'
p137
tp138
sS'ZZJets2L2Q'
p139
(I2
I593
I1
I1
S'ZZ#rightarrow2l2q'
p140
tp141
sS'ZZZ'
p142
(I0
I435
I1
I1
g142
tp143
sS'top'
p144
(I0
I601
I1
I1
S't#bar{t}/t'
p145
tp146
sS'Irreducible'
p147
(I2
I600
I0
I21
g147
tp148
sS'ZZ2e2mu'
p149
(I2
I807
I1
I1
S'ZZ#rightarrow 2e2#mu'
p150
tp151
sS'WbbToLNu'
p152
(I2
I858
I1
I1
S'W+bb'
p153
tp154
sS'Fakes_mu'
p155
(I2
I619
I3001
I20
S'Fakes #mu'
p156
tp157
sS'ZJets'
p158
(I0
I632
I1
I1
S'Z+jets'
p159
tp160
sS'WW/ZZ'
p161
(I0
I921
I1
I1
g161
tp162
sS'Fakes_mumu'
p163
(I2
I620
I3001
I1
S'Fakes #mu#mu'
p164
tp165
sS'ZZ2e2tau'
p166
(I2
I806
I1
I1
S'ZZ#rightarrow 2e2#tau'
p167
tp168
sS'DATA_MUON'
p169
(I2
I920
I0
I21
S'Observed (#mu#mu)'
p170
tp171
sS'Fakes_ee'
p172
(I2
I436
I3001
I1
S'Fakes ee'
p173
tp174
sS'ZZToEE'
p175
(I2
I413
I0
I1
S'ZZ (ee)'
p176
tp177
sS'ZZ2mu2tau'
p178
(I2
I805
I1
I1
S'ZZ#rightarrow 2#mu2#tau'
p179
tp180
sS'ZZToEMu'
p181
(I2
I414
I0
I1
S'ZZ (e#mu)'
p182
tp183
sS'QCD'
p184
(I2
I800
I1
I1
g184
tp185
sS'WZZ'
p186
(I0
I434
I1
I1
g186
tp187
sS'ZbbToLL'
p188
(I2
I624
I1
I1
S'Z+bb'
p189
tp190
sS'DATA'
p191
(I2
I1
I0
I20
S'Data'
p192
tp193
sS'PhotonJets'
p194
(I2
I632
I0
I1
S'Z+jets (data)'
p195
tp196
sS'ZZ4l'
p197
(I0
I921
I1
I1
g103
tp198
sS'WJets'
p199
(I2
I857
I1
I1
S'W+jets'
p200
tp201
sS'ZZToMuTau'
p202
(I2
I414
I0
I1
S'ZZ (#mu#tau)'
p203
tp204
sS'ZZ4e'
p205
(I2
I809
I1
I1
S'ZZ#rightarrow 4e'
p206
tp207
sS'ttbar'
p208
(I0
I600
I1
I1
S't#bar{t}'
p209
tp210
sS'QCD_20_MU'
p211
(I2
I799
I1
I1
S'QCD #mu'
p212
tp213
sS'QCD_EM'
p214
(I2
I801
I1
I1
S'QCD e#gamma'
p215
tp216
sS'FAKES_2l'
p217
(I2
I632
I3001
I1
g10
tp218
sS't_t-channel'
p219
(I2
I597
I1
I1
S't (t-channel)'
p220
tp221
sS'FAKEABLE'
p222
(I2
I600
I0
I21
S'Fakeable'
p223
tp224
sS'ZZJets2L2Nu'
p225
(I2
I419
I1
I1
S'ZZ#rightarrow2l2#nu'
p226
tp227
sS'Diboson'
p228
(I0
I921
I1
I1
S'diboson'
p229
tp230
sS'ZGToNuNu'
p231
(I2
I603
I0
I1
S'ZG->#nu#nu'
p232
tp233
sS'higgs'
p234
(I2
I603
I0
I1
g234
tp235
sS'DATA_FAKES'
p236
(I2
I1
I3001
I21
g192
tp237
sS'SIGNIFICANCE'
p238
(I2
I416
I1
I21
S'Signficance'
p239
tp240
sS'DYToMuMu'
p241
(I2
I632
I0
I1
S'Z+jets (#mu#mu)'
p242
tp243
sS'tbarW'
p244
(I2
I598
I1
I1
S'#bar{t}W'
p245
tp246
s.(dp0
S'Remove_ss'
p1
(lp2
S'ZJets_M-50'
p3
aS'ZJets_M-10To50'
p4
asS'FAKES_2l'
p5
(lp6
S'WbbToLNu'
p7
ag3
ag4
aS'ttbar'
p8
aS'tbarW'
p9
aS'tW'
p10
aS'WWJets2L2Nu'
p11
aS'ZZJets2L2Nu'
p12
aS'ZZJets2L2Q'
p13
asS'PROMPT_2l'
p14
g6
sS'FAKES_3l'
p15
(lp16
S'WZJets3LNu'
p17
asS'QCD'
p18
(lp19
S'QCD_20_MU'
p20
aS'QCD_20-30_EM'
p21
aS'QCD_30-80_EM'
p22
aS'QCD_80-170_EM'
p23
aS'QCD_170-250_EM'
p24
aS'QCD_250-350_EM'
p25
aS'QCD_350_EM'
p26
asS'PASS'
p27
(lp28
S'DATA_MUON'
p29
aS'DATA_ELECTRON'
p30
aS'DATA_MUEG'
p31
asS'DATA'
p32
g28
sS'FAKEABLE'
p33
g28
sS'top'
p34
(lp35
g8
ag10
ag9
aS't_t-channel'
p36
aS'tbar_t-channel'
p37
asS'ttV'
p38
(lp39
S'ttZ'
p40
aS'ttW'
p41
asS'ZZ4l'
p42
(lp43
S'ZZ4mu'
p44
aS'ZZ4e'
p45
aS'ZZ4tau'
p46
aS'ZZ2e2mu'
p47
aS'ZZ2mu2tau'
p48
aS'ZZ2e2tau'
p49
asS'WGStar'
p50
(lp51
S'WGStarLNu2E'
p52
aS'WGStarLNu2Mu'
p53
aS'WGStarLNu2Tau'
p54
asS'FCNH'
p55
(lp56
S'FCNC_M125_t'
p57
aS'FCNC_M125_t_semilep'
p58
aS'FCNC_M125_t_ZZ'
p59
aS'FCNC_M125_t_TauTau'
p60
asS'VJets'
p61
(lp62
g3
ag4
aS'WJets'
p63
asS'Irreducible'
p64
(lp65
S'ggHToZZ4L_M-125'
p66
aS'WHToWWW3L_M-125'
p67
aS'ggHToWW2L2Nu_M-125'
p68
aS'TTH_M-125'
p69
ag44
ag45
ag46
ag47
ag48
ag49
ag40
ag41
aS'ttG'
p70
aS'WWW'
p71
aS'WWZ'
p72
aS'WZZ'
p73
aS'ZZZ'
p74
aS'WWG'
p75
ag17
asS'PROMPT_3l'
p76
g16
sS'QCD_EM'
p77
(lp78
g21
ag22
ag23
ag24
ag25
ag26
asS'Remove_3l'
p79
(lp80
g17
ag44
ag45
ag46
ag47
ag48
ag49
ag40
ag41
ag71
ag72
ag73
ag74
asS'ZJets'
p81
(lp82
g3
ag4
asS'Diboson'
p83
(lp84
g44
ag45
ag46
ag47
ag48
ag49
ag11
ag12
ag17
asS'higgs'
p85
(lp86
g66
ag67
ag68
ag69
asS'Triboson'
p87
(lp88
g71
ag72
ag73
ag74
ag75
asS'WW/ZZ'
p89
(lp90
g44
ag45
ag46
ag47
ag48
ag49
ag11
ag12
asS'DATA_FAKES'
p91
g28
sS'Fakes'
p92
(lp93
S'Fakes_e'
p94
aS'Fakes_mu'
p95
aS'Fakes_ee'
p96
aS'Fakes_emu'
p97
aS'Fakes_mumu'
p98
asS'single top'
p99
(lp100
g10
ag9
ag36
ag37
as.(dp0
S'3l_inclusive'
p1
S'3l inclusive'
p2
sS'inclusive'
p3
g3
sS'QCD2l_high_met'
p4
S'QCD ll (45 < MET < 80)'
p5
sS'ZPlusJet_low_met'
p6
S'Z+jet (MET < 20)'
p7
sS'QCD2l_low_met'
p8
S'QCD ll (MET < 20)'
p9
sS'os_inclusive'
p10
S'os inclusive'
p11
sS'3l_mumumu'
p12
S'#mu#mu#mu'
p13
sS'3l_emumu'
p14
S'e#mu#mu'
p15
sS'QCD2l_inclusive'
p16
S'QCD ll'
p17
sS'os_emu'
p18
S'e^{#pm}mu^{#mp}'
p19
sS'high_met'
p20
S'45 < MET < 80'
p21
sS'low_met'
p22
S'MET < 20'
p23
sS'os_ee'
p24
S'e^{#pm}e^{#mp}'
p25
sS'3l_SSSF'
p26
S'(l^{#pm}l^{#pm})l'
p27
sS'ZPlusJet_inclusive'
p28
S'Z+jet'
p29
sS'ss_emu'
p30
S'e^{#pm}#mu^{#pm}'
p31
sS'ZPlusJet_high_met'
p32
S'Z+jet (45 < MET < 80)'
p33
sS'ss_mumu'
p34
S'#mu^{#pm}#mu^{#pm}'
p35
sS'3l_eemu'
p36
S'ee#mu'
p37
sS'os_mumu'
p38
S'#mu^{#pm}#mu^{#mp}'
p39
sS'ss_inclusive'
p40
S'ss inclusive'
p41
sS'ss_ee'
p42
S'e^{#pm}e^{#pm}'
p43
sS'3l_OSSF'
p44
S'(l^{#pm}l^{#mp})l'
p45
sS'3l_eee'
p46
S'eee'
p47
s.