(dp0
S'2011'
p1
(dp2
S'tW'
p3
F7.8700000000000001
sS'GluGluWW'
p4
F0.15049999999999999
sS'WW'
p5
F4.5099999999999998
sS'QFlips'
p6
F1.0
sS'WZJets2L2Q'
p7
F1.8329
sS'ZbbToLL'
p8
F304.0
sS'WZ'
p9
F0.59599999999999997
sS'ZZJets2L2Q'
p10
F0.62460000000000004
sS'ZJets_M-50'
p11
F3048.0
sS'DATA_MUEG'
p12
F1.0
sS'FCNC_M125_t'
p13
F0.0040000000000000001
sS'WJets'
p14
I31314
sS'ttbar'
p15
I165
sS'DATA_MUON'
p16
F1.0
sS'DYToTauTau'
p17
F1666.0
sS'ZG'
p18
F159.12
sS'ZZ'
p19
F0.214
sS'WWJets2L2Nu'
p20
F4.7830000000000004
sS'WZJets3LNu'
p21
F0.85599999999999998
sS'ZJets_M-10To50'
p22
F742.60000000000002
sS'ZZJets2L2Nu'
p23
F0.1787
sS'FCNC_M125_tbar'
p24
F0.0040000000000000001
sS'ZGToNuNu'
p25
F3.4620000000000002
sS'DATA_ELECTRON'
p26
F1.0
sS'DYToEE'
p27
F1666.0
sS'Fakes'
p28
F1.0
sS'DYToMuMu'
p29
F1666.0
sS'tbarW'
p30
F7.8700000000000001
ssS'2012'
p31
(dp32
S'WG'
p33
F1000.0
sg13
F0.014628599999999997
sS'FCNC_M125_t_TauTau'
p34
F0.095256000000000007
sg3
F11.77
sS'tbar_t-channel'
p35
F30.699999999999999
sg4
F0.15049999999999999
sg5
F54.799999999999997
sS'QCD_80-170_EM'
p36
I183722
sS'QCD_250-350_EM'
p37
F556.75
sS'WHToWWW3L_M-125'
p38
F0.019034999999999996
sg6
F1.0
sS'ggHToZZ4L_M-125'
p39
F0.0041271119999999996
sg7
F5.0899999999999999
sg17
F1666.0
sg8
F94.099999999999994
sS'WWZ'
p40
F0.063
sS'ZZ4tau'
p41
F0.076910000000000006
sg9
F32.299999999999997
sg10
F1.28
sS'ttZ'
p42
F0.20799999999999999
sS'ZZZ'
p43
F0.0045999999999999999
sg11
F3532.8000000000002
sS'WGStarLNu2Mu'
p44
F1.9139999999999999
sS'FCNC_M125_t_semilep'
p45
F0.19894895999999998
sS'ttW'
p46
F0.249
sS'ZZ4mu'
p47
F0.076910000000000006
sg28
F1.0
sg14
I31314
sS'TTH_M-125'
p48
F0.1032
sS'QCD_170-250_EM'
p49
I4588
sS'ZZ2mu2tau'
p50
F0.1767
sS'ZZ4e'
p51
F0.076910000000000006
sg15
F244.76400000000001
sS'ZGstar'
p52
F0.5
sS'ttG'
p53
F1.4399999999999999
sg16
F1.0
sS'WZZ'
p54
F0.019199999999999998
sS'ZZJets4L'
p55
F0.092100000000000001
sS'WGStarLNu2E'
p56
F5.8730000000000002
sg18
F159.12
sS'ZZ2e2mu'
p57
F0.1767
sS'QCD_30-80_EM'
p58
F4615893.0
sS'QCD_20-30_EM'
p59
F2920632.0
sg19
F7.7000000000000002
sS't_t-channel'
p60
F55.530000000000001
sg20
F5.9950000000000001
sg21
F1.4215740000000001
sg22
F860.5
sS'ggHToWW2L2Nu_M-125'
p61
F0.37345499999999993
sg23
F0.36499999999999999
sg24
F0.014628599999999997
sS'WWW'
p62
F0.082000000000000003
sg25
F3.4620000000000002
sg26
F1.0
sg27
F1666.0
sS'WbbToLNu'
p63
F39.899999999999999
sS'WGStarLNu2Tau'
p64
F0.33600000000000002
sg12
F1.0
sS'WWG'
p65
F0.52800000000000002
sS'ZZ2e2tau'
p66
F0.1767
sS'QCD_350_EM'
p67
F89.099999999999994
sS'QCD_20_MU'
p68
F84679.0
sS'FCNC_M125_t_ZZ'
p69
F0.007584192
sg29
F1666.0
sg30
F11.77
ss.(dp0
S'WG'
p1
(I0
I859
I1
I1
S'WG*'
p2
tp3
sS'ZZToEE'
p4
(I2
I413
I0
I1
S'ZZ (ee)'
p5
tp6
sS'RATIO'
p7
(I0
I1
I3002
I21
S'Ratio'
p8
tp9
sS'WW/ZZ'
p10
(I0
I921
I1
I1
g10
tp11
sS'tbar_t-channel'
p12
(I2
I596
I1
I1
S'#bar{t} (t-channel)'
p13
tp14
sS'QCD'
p15
(I2
I800
I1
I1
g15
tp16
sS'tbarW'
p17
(I2
I598
I1
I1
S'#bar{t}W'
p18
tp19
sS'WW'
p20
(I2
I412
I0
I1
g20
tp21
sS'GJets_15to30'
p22
(I2
I402
I0
I1
S'gamma+jets'
p23
tp24
sS'tW'
p25
(I2
I599
I1
I1
g25
tp26
sS'ZZToEMu'
p27
(I2
I414
I0
I1
S'ZZ (e#mu)'
p28
tp29
sS'SUM_EFF'
p30
(I1
I600
I3018
I21
S'BG'
p31
tp32
sS'single top'
p33
(I0
I602
I3004
I1
S't'
p34
tp35
sS'WZJets2L2Q'
p36
(I3
I597
I0
I1
S'WZ#rightarrow2l2q'
p37
tp38
sS'DYToTauTau'
p39
(I2
I629
I0
I1
S'Z+jets (#tau#tau)'
p40
tp41
sS'ZbbToLL'
p42
(I2
I624
I1
I1
S'Z+bb'
p43
tp44
sS'WWZ'
p45
(I0
I433
I1
I1
g45
tp46
sS'DATA'
p47
(I2
I1
I0
I21
S'Observed'
p48
tp49
sS'ZZToTauTau'
p50
(I2
I418
I0
I1
S'ZZ (#tau#tau)'
p51
tp52
sS'SIG_EFF'
p53
(I1
I632
I3018
I21
S'Signal'
p54
tp55
sS'ZZJets2L2Q'
p56
(I2
I593
I1
I1
S'ZZ#rightarrow2l2q'
p57
tp58
sS'ttZ'
p59
(I0
I417
I1
I1
S't#bar{t}Z'
p60
tp61
sS'WZJets3LNu'
p62
(I3
I617
I3004
I1
S'WZ#rightarrow3l#nu'
p63
tp64
sS'PhotonJets'
p65
(I2
I632
I0
I1
S'Z+jets (data)'
p66
tp67
sS'ZZZ'
p68
(I0
I435
I1
I1
g68
tp69
sS'ZJets_M-50'
p70
(I0
I633
I1
I1
S'Z+jets (M_{Z/#gamma*} > 50)'
p71
tp72
sS'WGStarLNu2Mu'
p73
(I0
I860
I1
I1
S'WG*#ell#nu2#mu'
p74
tp75
sS'DATA_MUEG'
p76
(I2
I922
I0
I21
S'Observed (e#mu)'
p77
tp78
sS'ZZ4tau'
p79
(I2
I808
I1
I1
S'ZZ#rightarrow 4#tau'
p80
tp81
sS'top'
p82
(I0
I601
I1
I1
S't#bar{t}/t'
p83
tp84
sS'ttW'
p85
(I0
I418
I1
I1
S't#bar{t}W'
p86
tp87
sS'ttV'
p88
(I0
I417
I1
I1
S't#bar{t}V'
p89
tp90
sS'ZZ4mu'
p91
(I2
I810
I1
I1
S'ZZ#rightarrow 4l'
p92
tp93
sS'ZZ4l'
p94
(I0
I921
I1
I1
S'ZZ#rightarrow4l'
p95
tp96
sS'WJets'
p97
(I2
I857
I1
I1
S'W+jets'
p98
tp99
sS'Fakes'
p100
(I2
I632
I3001
I1
g100
tp101
sS'ZZToMuTau'
p102
(I2
I414
I0
I1
S'ZZ (#mu#tau)'
p103
tp104
sS'ZZ2mu2tau'
p105
(I2
I805
I1
I1
S'ZZ#rightarrow 2#mu2#tau'
p106
tp107
sS'ZZ4e'
p108
(I2
I809
I1
I1
S'ZZ#rightarrow 4e'
p109
tp110
sS'ZJets_M-10To50'
p111
(I0
I634
I1
I1
S'Z+jets (M_{Z/#gamma*} < 50)'
p112
tp113
sS'ZGstar'
p114
(I2
I603
I0
I1
S'Z#gamma^{*}'
p115
tp116
sS'ttG'
p117
(I0
I419
I1
I1
S't#bar{t}G'
p118
tp119
sS'DATA_MUON'
p120
(I2
I920
I0
I21
S'Observed (#mu#mu)'
p121
tp122
sS'WZZ'
p123
(I0
I434
I1
I1
g123
tp124
sS'ZZJets4L'
p125
(I2
I602
I1
I1
g95
tp126
sS'WGStarLNu2E'
p127
(I0
I860
I1
I1
S'WG*#ell#nu2e'
p128
tp129
sS'ZG'
p130
(I0
I623
I1
I1
S'Z#gamma'
p131
tp132
sS'WZ'
p133
(I2
I909
I0
I1
g133
tp134
sS'WWW'
p135
(I0
I432
I1
I1
g135
tp136
sS'QCD_EM'
p137
(I2
I801
I1
I1
S'QCD e#gamma'
p138
tp139
sS'ZZToMuMu'
p140
(I2
I419
I0
I1
S'ZZ#rightarrow 4l '
p141
tp142
sS'FCNH'
p143
(I3
I903
I2
I22
g143
tp144
sS'ZZ'
p145
(I2
I804
I0
I1
g145
tp146
sS't_t-channel'
p147
(I2
I597
I1
I1
S't (t-channel)'
p148
tp149
sS'WWJets2L2Nu'
p150
(I0
I921
I1
I1
S'WW#rightarrow2l2#nu'
p151
tp152
sS'ZJets'
p153
(I0
I632
I1
I1
S'Z+jets'
p154
tp155
sS'ttbar'
p156
(I0
I600
I1
I1
S't#bar{t}'
p157
tp158
sS'ZZJets2L2Nu'
p159
(I2
I419
I1
I1
S'ZZ#rightarrow2l2#nu'
p160
tp161
sS'FAKE_BG'
p162
(I2
I632
I3004
I1
S'Prompt'
p163
tp164
sS'ZZ2e2mu'
p165
(I2
I807
I1
I1
S'ZZ#rightarrow 2e2#mu'
p166
tp167
sS'Diboson'
p168
(I0
I921
I1
I1
S'diboson'
p169
tp170
sS'ZGToNuNu'
p171
(I2
I603
I0
I1
S'ZG->#nu#nu'
p172
tp173
sS'higgs'
p174
(I2
I603
I0
I1
g174
tp175
sS'Triboson'
p176
(I0
I432
I1
I1
S'triboson'
p177
tp178
sS'DATA_ELECTRON'
p179
(I2
I921
I0
I21
S'Observed (ee)'
p180
tp181
sS'DATA_FAKES'
p182
(I2
I1
I0
I21
g100
tp183
sS'DYToEE'
p184
(I2
I632
I0
I1
S'Z+jets (ee)'
p185
tp186
sS'WbbToLNu'
p187
(I2
I858
I1
I1
S'W+bb'
p188
tp189
sS'WGStarLNu2Tau'
p190
(I0
I860
I1
I1
S'WG*#ell#nu2#tau'
p191
tp192
sS'WWG'
p193
(I0
I436
I1
I1
g193
tp194
sS'ZZ2e2tau'
p195
(I2
I806
I1
I1
S'ZZ#rightarrow 2e2#tau'
p196
tp197
sS'QCD_20_MU'
p198
(I2
I799
I1
I1
S'QCD #mu'
p199
tp200
sS'DYToMuMu'
p201
(I2
I632
I0
I1
S'Z+jets (#mu#mu)'
p202
tp203
sS'VJets'
p204
(I0
I632
I1
I1
S'V+jets'
p205
tp206
sS'ZZToETau'
p207
(I2
I414
I0
I1
S'ZZ (e#tau)'
p208
tp209
sS'BGERROR'
p210
(I0
I1
I3018
I0
S'BG error'
p211
tp212
sS'QFlips'
p213
(I2
I602
I3001
I1
g213
tp214
s.(dp0
S'FAKE_BG'
p1
(lp2
S'ZJets_M-50'
p3
aS'ZJets_M-10To50'
p4
aS'ttbar'
p5
aS'tbarW'
p6
aS'tW'
p7
aS'WWJets2L2Nu'
p8
aS'ZZJets2L2Nu'
p9
aS'ZZJets2L2Q'
p10
asS'FCNH'
p11
(lp12
S'FCNC_M125_t'
p13
aS'FCNC_M125_tbar'
p14
aS'FCNC_M125_t_semilep'
p15
aS'FCNC_M125_t_ZZ'
p16
aS'FCNC_M125_t_TauTau'
p17
asS'higgs'
p18
(lp19
S'ggHToZZ4L_M-125'
p20
aS'WHToWWW3L_M-125'
p21
aS'ggHToWW2L2Nu_M-125'
p22
aS'TTH_M-125'
p23
asS'top'
p24
(lp25
g5
ag7
ag6
aS't_t-channel'
p26
aS'tbar_t-channel'
p27
asS'QCD'
p28
(lp29
S'QCD_20_MU'
p30
aS'QCD_20-30_EM'
p31
aS'QCD_30-80_EM'
p32
aS'QCD_80-170_EM'
p33
aS'QCD_170-250_EM'
p34
aS'QCD_250-350_EM'
p35
aS'QCD_350_EM'
p36
asS'WW/ZZ'
p37
(lp38
S'ZZ4mu'
p39
aS'ZZ4e'
p40
aS'ZZ4tau'
p41
aS'ZZ2e2mu'
p42
aS'ZZ2mu2tau'
p43
aS'ZZ2e2tau'
p44
ag8
ag9
asS'DATA_FAKES'
p45
(lp46
S'DATA_MUON'
p47
aS'DATA_ELECTRON'
p48
aS'DATA_MUEG'
p49
asS'ttV'
p50
(lp51
S'ttZ'
p52
aS'ttW'
p53
aS'ttG'
p54
asS'ZZ4l'
p55
(lp56
g39
ag40
ag41
ag42
ag43
ag44
asS'Diboson'
p57
(lp58
g39
ag40
ag41
ag42
ag43
ag44
ag8
ag9
aS'WZJets3LNu'
p59
asS'WGStar'
p60
(lp61
S'WGStarLNu2E'
p62
aS'WGStarLNu2Mu'
p63
aS'WGStarLNu2Tau'
p64
asS'QCD_EM'
p65
(lp66
g31
ag32
ag33
ag34
ag35
ag36
asS'single top'
p67
(lp68
g7
ag6
ag26
ag27
asS'ZJets'
p69
(lp70
g3
ag4
asS'DATA'
p71
(lp72
g47
ag48
ag49
asS'Triboson'
p73
(lp74
S'WWW'
p75
aS'WWZ'
p76
aS'WZZ'
p77
aS'ZZZ'
p78
aS'WWG'
p79
asS'VJets'
p80
(lp81
g3
ag4
aS'WJets'
p82
as.(dp0
S'3l_emumu'
p1
S'e#mu#mu'
p2
sS'ss_mumu'
p3
S'#mu^{#pm}#mu^{#pm}'
p4
sS'low_met'
p5
S'MET < 20'
p6
sS'3l_SSSF'
p7
S'(l^{#pm}l^{#pm})l'
p8
sS'inclusive'
p9
g9
sS'os_emu'
p10
S'e^{#pm}mu^{#mp}'
p11
sS'3l_eemu'
p12
S'ee#mu'
p13
sS'3l_inclusive'
p14
S'3l inclusive'
p15
sS'ss_emu'
p16
S'e^{#pm}#mu^{#pm}'
p17
sS'3l_eee'
p18
S'eee'
p19
sS'ss_ee'
p20
S'e^{#pm}e^{#pm}'
p21
sS'os_mumu'
p22
S'#mu^{#pm}#mu^{#mp}'
p23
sS'high_met'
p24
S'45 < MET < 80'
p25
sS'os_inclusive'
p26
S'os inclusive'
p27
sS'3l_OSSF'
p28
S'(l^{#pm}l^{#mp})l'
p29
sS'ss_inclusive'
p30
S'ss inclusive'
p31
sS'os_ee'
p32
S'e^{#pm}e^{#mp}'
p33
sS'3l_mumumu'
p34
S'#mu#mu#mu'
p35
s.