(dp0
S'2011'
p1
(dp2
S'tW'
p3
F7.8700000000000001
sS'GluGluWW'
p4
F0.15049999999999999
sS'fakes'
p5
F1.0
sS'WW'
p6
F4.5099999999999998
sS'WZJets2L2Q'
p7
F1.8329
sS'ZbbToLL'
p8
F304.0
sS'WZ'
p9
F0.59599999999999997
sS'ZZJets2L2Q'
p10
F0.62460000000000004
sS'ZJets_M-50'
p11
F3048.0
sS'DATA_MUEG'
p12
F1.0
sS'FCNC_M125_t'
p13
F0.0040000000000000001
sS'WJets'
p14
I31314
sS'ttbar'
p15
I165
sS'DATA_MUON'
p16
F1.0
sS'DYToTauTau'
p17
F1666.0
sS'ZG'
p18
F159.12
sS'ZZ'
p19
F0.214
sS'WWJets2L2Nu'
p20
F4.7830000000000004
sS'WZJets3LNu'
p21
F0.85599999999999998
sS'ZJets_M-10To50'
p22
F742.60000000000002
sS'ZZJets2L2Nu'
p23
F0.1787
sS'FCNC_M125_tbar'
p24
F0.0040000000000000001
sS'ZGToNuNu'
p25
F3.4620000000000002
sS'DATA_ELECTRON'
p26
F1.0
sS'DYToEE'
p27
F1666.0
sS'DYToMuMu'
p28
F1666.0
sS'tbarW'
p29
F7.8700000000000001
ssS'2012'
p30
(dp31
S'WG'
p32
F1000.0
sg13
F0.0010062000000000003
sg3
F11.77
sS'tbar_t-channel'
p33
F30.699999999999999
sg4
F0.15049999999999999
sg5
F1.0
sg6
F54.799999999999997
sS'QCD_80-170_EM'
p34
I183722
sS'QCD_250-350_EM'
p35
F556.75
sS'WHToWWW3L_M-125'
p36
F0.01
sS'ggHToZZ4L_M-125'
p37
F0.01
sg7
F5.0899999999999999
sg17
F1666.0
sg8
F100.0
sS'WWZ'
p38
F0.063
sS'ZZ4tau'
p39
F0.076910000000000006
sg9
F32.299999999999997
sg10
F1.28
sS'ttZ'
p40
F0.20799999999999999
sS'ZZZ'
p41
F0.0045999999999999999
sg11
F3532.8000000000002
sS'WGStarLNu2Mu'
p42
F1.9139999999999999
sg12
F1.0
sS'ttW'
p43
F0.249
sS'ZZ4mu'
p44
F0.076910000000000006
sg14
I31314
sS'QCD_170-250_EM'
p45
I4588
sS'ZZ2mu2tau'
p46
F0.1767
sS'ZZ4e'
p47
F0.076910000000000006
sg15
I234
sS'ttG'
p48
F1.4399999999999999
sg16
F1.0
sS'WZZ'
p49
F0.019199999999999998
sS'ZZJets4L'
p50
F0.092100000000000001
sS'WGStarLNu2E'
p51
F5.8730000000000002
sg18
F159.12
sS'ZZ2e2mu'
p52
F0.1767
sS'QCD_30-80_EM'
p53
F4615893.0
sS'QCD_20-30_EM'
p54
F2920632.0
sg19
F7.7000000000000002
sS't_t-channel'
p55
F55.530000000000001
sg20
F5.9950000000000001
sg21
F1.0860000000000001
sg22
F860.5
sS'ggHToWW2L2Nu_M-125'
p56
F0.01
sg23
F0.36499999999999999
sg24
F0.0010062000000000003
sS'WWW'
p57
F0.082000000000000003
sg25
F3.4620000000000002
sg26
F1.0
sg27
F1666.0
sS'WbbToLNu'
p58
F10000.0
sS'WGStarLNu2Tau'
p59
F0.33600000000000002
sS'WWG'
p60
F0.52800000000000002
sS'ZZ2e2tau'
p61
F0.1767
sS'QCD_350_EM'
p62
F89.099999999999994
sS'QCD_20_MU'
p63
F84679.0
sg28
F1666.0
sg29
F11.77
ss.(dp0
S'WG'
p1
(I0
I859
I1
I1
S'WG*'
p2
tp3
sS'ZZToEE'
p4
(I2
I413
I0
I1
S'ZZ (ee)'
p5
tp6
sS'RATIO'
p7
(I0
I1
I3002
I21
S'Ratio'
p8
tp9
sS'DATA_ELECTRON'
p10
(I2
I921
I0
I21
S'Observed (ee)'
p11
tp12
sS'tbar_t-channel'
p13
(I2
I596
I1
I1
S'#bar{t} (t-channel)'
p14
tp15
sS'QCD'
p16
(I2
I800
I1
I1
g16
tp17
sS'tbarW'
p18
(I2
I598
I1
I1
S'#bar{t}W'
p19
tp20
sS'WW'
p21
(I2
I412
I0
I1
g21
tp22
sS'GJets_15to30'
p23
(I2
I402
I0
I1
S'gamma+jets'
p24
tp25
sS'tW'
p26
(I2
I599
I1
I1
g26
tp27
sS'ZZToEMu'
p28
(I2
I414
I0
I1
S'ZZ (e#mu)'
p29
tp30
sS'SUM_EFF'
p31
(I1
I600
I3018
I21
S'BG'
p32
tp33
sS'single top'
p34
(I0
I602
I3004
I1
S't'
p35
tp36
sS'WZJets2L2Q'
p37
(I3
I597
I0
I1
S'WZ#rightarrow2l2q'
p38
tp39
sS'DYToTauTau'
p40
(I2
I629
I0
I1
S'Z+jets (#tau#tau)'
p41
tp42
sS'ZbbToLL'
p43
(I2
I624
I1
I1
S'Z+bb'
p44
tp45
sS'WWZ'
p46
(I0
I433
I1
I1
g46
tp47
sS'DATA'
p48
(I2
I1
I0
I21
S'Observed'
p49
tp50
sS'ZZToTauTau'
p51
(I2
I418
I0
I1
S'ZZ (#tau#tau)'
p52
tp53
sS'SIG_EFF'
p54
(I1
I632
I3018
I21
S'Signal'
p55
tp56
sS'ZZJets2L2Q'
p57
(I2
I593
I1
I1
S'ZZ#rightarrow2l2q'
p58
tp59
sS'ttZ'
p60
(I0
I417
I1
I1
S't#bar{t}Z'
p61
tp62
sS'WZJets3LNu'
p63
(I3
I617
I3004
I1
S'WZ#rightarrow3l#nu'
p64
tp65
sS'PhotonJets'
p66
(I2
I632
I0
I1
S'Z+jets (data)'
p67
tp68
sS'ZZZ'
p69
(I0
I435
I1
I1
g69
tp70
sS'ZJets_M-50'
p71
(I0
I633
I1
I1
S'Z+jets (M_{Z/#gamma*} > 50)'
p72
tp73
sS'WGStarLNu2Mu'
p74
(I0
I860
I1
I1
S'WG*#ell#nu2#mu'
p75
tp76
sS'DATA_MUEG'
p77
(I2
I922
I0
I21
S'Observed (e#mu)'
p78
tp79
sS'ZZ4tau'
p80
(I2
I808
I1
I1
S'ZZ#rightarrow 4#tau'
p81
tp82
sS'top'
p83
(I0
I601
I1
I1
S't#bar{t}/t'
p84
tp85
sS'ttW'
p86
(I0
I418
I1
I1
S't#bar{t}W'
p87
tp88
sS'ttV'
p89
(I0
I417
I1
I1
S't#bar{t}V'
p90
tp91
sS'ZZ4mu'
p92
(I2
I810
I1
I1
S'ZZ#rightarrow 4l'
p93
tp94
sS'ZZ4l'
p95
(I0
I921
I1
I1
S'ZZ#rightarrow4l'
p96
tp97
sS'WJets'
p98
(I2
I857
I1
I1
S'W+jets'
p99
tp100
sS'ZZToMuTau'
p101
(I2
I414
I0
I1
S'ZZ (#mu#tau)'
p102
tp103
sS'ZZ2mu2tau'
p104
(I2
I805
I1
I1
S'ZZ#rightarrow 2#mu2#tau'
p105
tp106
sS'ZZ4e'
p107
(I2
I809
I1
I1
S'ZZ#rightarrow 4e'
p108
tp109
sS'ZJets_M-10To50'
p110
(I0
I634
I1
I1
S'Z+jets (M_{Z/#gamma*} < 50)'
p111
tp112
sS'FCNH'
p113
(I3
I903
I2
I22
g113
tp114
sS'ttG'
p115
(I0
I419
I1
I1
S't#bar{t}G'
p116
tp117
sS'DATA_MUON'
p118
(I2
I920
I0
I21
S'Observed (#mu#mu)'
p119
tp120
sS'WZZ'
p121
(I0
I434
I1
I1
g121
tp122
sS'ZZJets4L'
p123
(I2
I602
I1
I1
g96
tp124
sS'WGStarLNu2E'
p125
(I0
I860
I1
I1
S'WG*#ell#nu2e'
p126
tp127
sS'ZG'
p128
(I0
I623
I1
I1
S'Z#gamma'
p129
tp130
sS'WZ'
p131
(I2
I909
I0
I1
g131
tp132
sS'WWW'
p133
(I0
I432
I1
I1
g133
tp134
sS'ZZToMuMu'
p135
(I2
I419
I0
I1
S'ZZ#rightarrow 4l '
p136
tp137
sS'ZZ'
p138
(I2
I804
I0
I1
g138
tp139
sS't_t-channel'
p140
(I2
I597
I1
I1
S't (t-channel)'
p141
tp142
sS'WWJets2L2Nu'
p143
(I0
I921
I1
I1
S'WW#rightarrow2l2#nu'
p144
tp145
sS'ZJets'
p146
(I0
I632
I1
I1
S'Z+jets'
p147
tp148
sS'ttbar'
p149
(I0
I600
I1
I1
S't#bar{t}'
p150
tp151
sS'ZZJets2L2Nu'
p152
(I2
I419
I1
I1
S'ZZ#rightarrow2l2#nu'
p153
tp154
sS'ZZ2e2mu'
p155
(I2
I807
I1
I1
S'ZZ#rightarrow 2e2#mu'
p156
tp157
sS'Diboson'
p158
(I0
I921
I1
I1
S'diboson'
p159
tp160
sS'ZGToNuNu'
p161
(I2
I603
I0
I1
S'ZG->#nu#nu'
p162
tp163
sS'higgs'
p164
(I2
I603
I0
I1
g164
tp165
sS'Triboson'
p166
(I0
I432
I1
I1
S'triboson'
p167
tp168
sS'WW/ZZ'
p169
(I0
I921
I1
I1
g169
tp170
sS'DYToEE'
p171
(I2
I632
I0
I1
S'Z+jets (ee)'
p172
tp173
sS'WbbToLNu'
p174
(I2
I858
I1
I1
S'W+bb'
p175
tp176
sS'WGStarLNu2Tau'
p177
(I0
I860
I1
I1
S'WG*#ell#nu2#tau'
p178
tp179
sS'WWG'
p180
(I0
I436
I1
I1
g180
tp181
sS'ZZ2e2tau'
p182
(I2
I806
I1
I1
S'ZZ#rightarrow 2e2#tau'
p183
tp184
sS'fakes'
p185
(I2
I1
I0
I21
g185
tp186
sS'DYToMuMu'
p187
(I2
I632
I0
I1
S'Z+jets (#mu#mu)'
p188
tp189
sS'VJets'
p190
(I0
I632
I1
I1
S'V+jets'
p191
tp192
sS'ZZToETau'
p193
(I2
I414
I0
I1
S'ZZ (e#tau)'
p194
tp195
sS'BGERROR'
p196
(I0
I1
I3018
I0
S'BG error'
p197
tp198
s.(dp0
S'FCNH'
p1
(lp2
S'FCNC_M125_t'
p3
aS'FCNC_M125_tbar'
p4
asS'higgs'
p5
(lp6
S'ggHToZZ4L_M-125'
p7
aS'WHToWWW3L_M-125'
p8
asS'top'
p9
(lp10
S'ttbar'
p11
aS'tW'
p12
aS'tbarW'
p13
aS't_t-channel'
p14
aS'tbar_t-channel'
p15
asS'QCD'
p16
(lp17
S'QCD_20_MU'
p18
aS'QCD_20-30_EM'
p19
aS'QCD_30-80_EM'
p20
aS'QCD_80-170_EM'
p21
aS'QCD_170-250_EM'
p22
aS'QCD_250-350_EM'
p23
aS'QCD_350_EM'
p24
asS'WW/ZZ'
p25
(lp26
S'ZZ4mu'
p27
aS'ZZ4e'
p28
aS'ZZ4tau'
p29
aS'ZZ2e2mu'
p30
aS'ZZ2mu2tau'
p31
aS'ZZ2e2tau'
p32
aS'WWJets2L2Nu'
p33
aS'ZZJets2L2Nu'
p34
asS'ttV'
p35
(lp36
S'ttZ'
p37
aS'ttW'
p38
aS'ttG'
p39
asS'ZZ4l'
p40
(lp41
g27
ag28
ag29
ag30
ag31
ag32
asS'Diboson'
p42
(lp43
g27
ag28
ag29
ag30
ag31
ag32
ag33
ag34
aS'WZJets3LNu'
p44
asS'WGStar'
p45
(lp46
S'WGStarLNu2E'
p47
aS'WGStarLNu2Mu'
p48
aS'WGStarLNu2Tau'
p49
asS'single top'
p50
(lp51
g12
ag13
ag14
ag15
asS'ZJets'
p52
(lp53
S'ZJets_M-50'
p54
aS'ZJets_M-10To50'
p55
asS'DATA'
p56
(lp57
S'DATA_MUON'
p58
aS'DATA_ELECTRON'
p59
aS'DATA_MUEG'
p60
asS'Triboson'
p61
(lp62
S'WWW'
p63
aS'WWZ'
p64
aS'WZZ'
p65
aS'ZZZ'
p66
aS'WWG'
p67
asS'VJets'
p68
(lp69
g54
ag55
aS'WJets'
p70
as.(dp0
S'3l_emumu'
p1
S'e#mu#mu'
p2
sS'ss_mumu'
p3
S'#mu^{#pm}#mu^{#pm}'
p4
sS'3l_SSSF'
p5
S'(l^{#pm}l^{#pm})l'
p6
sS'inclusive'
p7
g7
sS'os_emu'
p8
S'e^{#pm}mu^{#mp}'
p9
sS'3l_eemu'
p10
S'ee#mu'
p11
sS'3l_inclusive'
p12
S'3l inclusive'
p13
sS'ss_emu'
p14
S'e^{#pm}#mu^{#pm}'
p15
sS'3l_eee'
p16
S'eee'
p17
sS'ss_ee'
p18
S'e^{#pm}e^{#pm}'
p19
sS'os_mumu'
p20
S'#mu^{#pm}#mu^{#mp}'
p21
sS'os_inclusive'
p22
S'os inclusive'
p23
sS'3l_OSSF'
p24
S'(l^{#pm}l^{#mp})l'
p25
sS'ss_inclusive'
p26
S'ss inclusive'
p27
sS'os_ee'
p28
S'e^{#pm}e^{#mp}'
p29
sS'3l_mumumu'
p30
S'#mu#mu#mu'
p31
s.