(dp0
S'2011'
p1
(dp2
S'tW'
p3
F7.8700000000000001
sS'GluGluWW'
p4
F0.15049999999999999
sS'WW'
p5
F4.5099999999999998
sS'QFlips'
p6
F1.0
sS'WZJets2L2Q'
p7
F1.8329
sS'ZbbToLL'
p8
F304.0
sS'WZ'
p9
F0.59599999999999997
sS'ZZJets2L2Q'
p10
F0.62460000000000004
sS'ZJets_M-50'
p11
F3048.0
sS'DATA_MUEG'
p12
F1.0
sS'FCNC_M125_t'
p13
F0.0040000000000000001
sS'WJets'
p14
I31314
sS'ttbar'
p15
I165
sS'DATA_MUON'
p16
F1.0
sS'DYToTauTau'
p17
F1666.0
sS'ttbar_lep'
p18
I148500
sS'ZG'
p19
F159.12
sS'ttbar_had'
p20
I346500
sS'ZZ'
p21
F0.214
sS'WWJets2L2Nu'
p22
F4.7830000000000004
sS'WZJets3LNu'
p23
F0.85599999999999998
sS'ZJets_M-10To50'
p24
F742.60000000000002
sS'ZZJets2L2Nu'
p25
F0.1787
sS'FCNC_M125_tbar'
p26
F0.0040000000000000001
sS'ZGToNuNu'
p27
F3.4620000000000002
sS'DATA_ELECTRON'
p28
F1.0
sS'DYToEE'
p29
F1666.0
sS'Fakes'
p30
F1.0
sS'DYToMuMu'
p31
F1666.0
sS'tbarW'
p32
F7.8700000000000001
ssS'2012'
p33
(dp34
S'WG'
p35
F1000.0
sS'Fakes_e'
p36
F1.0
sg13
F0.036855645926399998
sS'Fakes_ll'
p37
F1.0
sS'FCNC_M125_t_TauTau'
p38
F0.10287648000000001
sg3
F11.77
sS'tbar_t-channel'
p39
F30.699999999999999
sg4
F0.15049999999999999
sg5
F54.799999999999997
sS'QCD_80-170_EM'
p40
I183722
sS'QCD_250-350_EM'
p41
F556.75
sS'WHToWWW3L_M-125'
p42
F0.019034999999999996
sg6
F1.0
sS'ggHToZZ4L_M-125'
p43
F0.0041271119999999996
sg7
F5.0899999999999999
sg17
F1666.0
sg8
F94.099999999999994
sS'WWZ'
p44
F0.063
sS'ZZ4tau'
p45
F0.076910000000000006
sg9
F32.299999999999997
sg10
F1.28
sS'ttZ'
p46
F0.20599999999999999
sg30
F1.0
sS'ZZZ'
p47
F0.0045999999999999999
sg11
F3532.8000000000002
sS'WGStarLNu2Mu'
p48
F1.9139999999999999
sS'FCNC_M125_t_semilep'
p49
F0.23068904302080004
sS'ttW'
p50
F0.249
sS'ZZ4mu'
p51
F0.076910000000000006
sg18
I210600
sg14
I31314
sS'TTH_M-125'
p52
F0.1032
sS'QCD_170-250_EM'
p53
I4588
sS'ZZ2mu2tau'
p54
F0.1767
sS'ZZ4e'
p55
F0.076910000000000006
sg15
I234
sS'ZGstar'
p56
F0.5
sS'ttG'
p57
F2.1659999999999999
sg16
F1.0
sS'Fakes_emu'
p58
F1.0
sS'WZZ'
p59
F0.019199999999999998
sS'ZZJets4L'
p60
F0.092100000000000001
sS'WGStarLNu2E'
p61
F5.8730000000000002
sg19
F159.12
sg20
I491400
sS'ZZ2e2mu'
p62
F0.1767
sS'QCD_30-80_EM'
p63
F4615893.0
sS'QCD_20-30_EM'
p64
F2920632.0
sg21
F7.7000000000000002
sS'Fakes_mu'
p65
F1.0
sS't_t-channel'
p66
F55.530000000000001
sg22
F5.9950000000000001
sg23
F1.0860000000000001
sg24
F860.5
sS'ggHToWW2L2Nu_M-125'
p67
F0.37345499999999993
sg25
F0.36499999999999999
sg26
F0.018427822963199999
sS'WWW'
p68
F0.082000000000000003
sS'Fakes_mumu'
p69
F1.0
sg27
F3.4620000000000002
sg28
F1.0
sg29
F1666.0
sS'WbbToLNu'
p70
F39.899999999999999
sS'WGStarLNu2Tau'
p71
F0.33600000000000002
sg12
F1.0
sS'WWG'
p72
F0.52800000000000002
sS'ZZ2e2tau'
p73
F0.1767
sS'QCD_350_EM'
p74
F89.099999999999994
sS'QCD_20_MU'
p75
F84679.0
sS'FCNC_M125_t_ZZ'
p76
F0.0081909273600000009
sg31
F1666.0
sg32
F11.77
sS'Fakes_ee'
p77
F1.0
ss.(dp0
S'WG'
p1
(I0
I859
I1
I1
S'WG*'
p2
tp3
sS'VV2l'
p4
(I0
I922
I1
I1
S'VV#rightarrow2l2x'
p5
tp6
sS'RATIO'
p7
(I0
I1
I3002
I21
S'Ratio'
p8
tp9
sS'tW'
p10
(I2
I599
I1
I1
g10
tp11
sS'PROMPT_2l'
p12
(I2
I632
I3001
I21
S'Prompt'
p13
tp14
sS'WW'
p15
(I2
I412
I0
I1
g15
tp16
sS'QFlips'
p17
(I2
I602
I3001
I1
g17
tp18
sS'WZJets2L2Q'
p19
(I3
I597
I0
I1
S'WZ#rightarrow2l2q'
p20
tp21
sS'GJets_15to30'
p22
(I2
I402
I0
I1
S'gamma+jets'
p23
tp24
sS'ZZ4tau'
p25
(I2
I808
I1
I1
S'ZZ#rightarrow 4#tau'
p26
tp27
sS'WZ'
p28
(I2
I909
I0
I1
g28
tp29
sS'ttZ'
p30
(I0
I417
I1
I1
S't#bar{t}Z'
p31
tp32
sS'ZJets_M-50'
p33
(I0
I633
I1
I1
S'Z+jets (M_{Z/#gamma*} > 50)'
p34
tp35
sS'ttW'
p36
(I0
I418
I1
I1
S't#bar{t}W'
p37
tp38
sS'ttV'
p39
(I0
I417
I1
I1
S't#bar{t}V'
p40
tp41
sS'ZZ4mu'
p42
(I2
I810
I1
I1
S'ZZ#rightarrow 4#mu'
p43
tp44
sS'ZJets_M-10To50'
p45
(I0
I634
I1
I1
S'Z+jets (M_{Z/#gamma*} < 50)'
p46
tp47
sS'ZGstar'
p48
(I2
I603
I0
I1
S'Z#gamma^{*}'
p49
tp50
sS'ttG'
p51
(I0
I419
I1
I1
S't#bar{t}G'
p52
tp53
sS'VJets'
p54
(I0
I632
I1
I1
S'V+jets'
p55
tp56
sS'Fakes_emu'
p57
(I2
I875
I3001
I1
S'Fakes e#mu'
p58
tp59
sS'DYToTauTau'
p60
(I2
I629
I0
I1
S'Z+jets (#tau#tau)'
p61
tp62
sS'ttbar_had'
p63
(I0
I603
I1
I1
S't#bar{t} (had)'
p64
tp65
sS'PROMPT_3l'
p66
(I2
I632
I3001
I21
g13
tp67
sS'PASS'
p68
(I2
I1
I0
I23
S'Pass'
p69
tp70
sS'WZJets3LNu'
p71
(I3
I617
I1
I1
S'WZ#rightarrow3l#nu'
p72
tp73
sS'DATA_ELECTRON'
p74
(I2
I921
I0
I21
S'Observed (ee)'
p75
tp76
sS'DYToEE'
p77
(I2
I632
I0
I1
S'Z+jets (ee)'
p78
tp79
sS'WGStarLNu2Tau'
p80
(I0
I860
I1
I1
S'WG*#ell#nu2#tau'
p81
tp82
sS'BGERROR'
p83
(I0
I1
I3018
I0
S'BG uncertainty'
p84
tp85
sS'Fakes_e'
p86
(I2
I434
I3001
I20
S'Fakes e'
p87
tp88
sS'WbbToLNu'
p89
(I2
I858
I1
I1
S'W+bb'
p90
tp91
sS'ZZToTauTau'
p92
(I2
I418
I0
I1
S'ZZ (#tau#tau)'
p93
tp94
sS'WGStarLNu2Mu'
p95
(I0
I860
I1
I1
S'WG*#ell#nu2#mu'
p96
tp97
sS'DATA_MUEG'
p98
(I2
I922
I0
I21
S'Observed (e#mu)'
p99
tp100
sS'ZZToETau'
p101
(I2
I414
I0
I1
S'ZZ (e#tau)'
p102
tp103
sS'SIG_EFF'
p104
(I2
I632
I1
I21
S'Signal'
p105
tp106
sS'FCNH'
p107
(I3
I635
I0
I20
g107
tp108
sS'ZZJets4L'
p109
(I2
I602
I1
I1
S'ZZ#rightarrow4l'
p110
tp111
sS'WGStarLNu2E'
p112
(I0
I860
I1
I1
S'WG*#ell#nu2e'
p113
tp114
sS'ZG'
p115
(I0
I623
I1
I1
S'Z#gamma'
p116
tp117
sS'ZZ'
p118
(I2
I804
I0
I1
g118
tp119
sS'WWJets2L2Nu'
p120
(I0
I921
I1
I1
S'WW#rightarrow2l2#nu'
p121
tp122
sS'WWW'
p123
(I0
I432
I1
I1
g123
tp124
sS'ZZToMuMu'
p125
(I2
I419
I0
I1
S'ZZ#rightarrow 4l '
p126
tp127
sS'Triboson'
p128
(I0
I432
I1
I1
S'triboson'
p129
tp130
sS'WWZ'
p131
(I0
I433
I1
I1
g131
tp132
sS'WWG'
p133
(I0
I436
I1
I1
g133
tp134
sS'Fakes_ll'
p135
(I2
I889
I3001
I1
S'Fakes ll'
p136
tp137
sS'tbar_t-channel'
p138
(I2
I596
I1
I1
S'#bar{t} (t-channel)'
p139
tp140
sS'FAKES_3l'
p141
(I2
I600
I3001
I1
g13
tp142
sS'SUM_EFF'
p143
(I2
I600
I1
I21
S'BG'
p144
tp145
sS'single top'
p146
(I0
I602
I3004
I1
S't'
p147
tp148
sS'ZZJets2L2Q'
p149
(I2
I593
I1
I1
S'ZZ#rightarrow2l2q'
p150
tp151
sS'ZZZ'
p152
(I0
I435
I1
I1
g152
tp153
sS'top'
p154
(I0
I601
I1
I1
S't#bar{t}/t'
p155
tp156
sS'Irreducible'
p157
(I2
I600
I0
I21
g157
tp158
sS'ZZ2e2mu'
p159
(I2
I807
I1
I1
S'ZZ#rightarrow 2e2#mu'
p160
tp161
sS'Fakes_mu'
p162
(I2
I619
I3001
I20
S'Fakes #mu'
p163
tp164
sS'ZJets'
p165
(I0
I632
I1
I1
S'Z+jets'
p166
tp167
sS'Fakes_mumu'
p168
(I2
I620
I3001
I1
S'Fakes #mu#mu'
p169
tp170
sS'WW/ZZ'
p171
(I0
I921
I1
I1
g171
tp172
sS'Fakes'
p173
(I2
I1
I3001
I20
g173
tp174
sS'ZZ2e2tau'
p175
(I2
I806
I1
I1
S'ZZ#rightarrow 2e2#tau'
p176
tp177
sS'DATA_MUON'
p178
(I2
I920
I0
I21
S'Observed (#mu#mu)'
p179
tp180
sS'Fakes_ee'
p181
(I2
I436
I3001
I1
S'Fakes ee'
p182
tp183
sS'ZZToEE'
p184
(I2
I413
I0
I1
S'ZZ (ee)'
p185
tp186
sS'ZZ2mu2tau'
p187
(I2
I805
I1
I1
S'ZZ#rightarrow 2#mu2#tau'
p188
tp189
sS'ZZToEMu'
p190
(I2
I414
I0
I1
S'ZZ (e#mu)'
p191
tp192
sS'QCD'
p193
(I2
I800
I1
I1
g193
tp194
sS'WZZ'
p195
(I0
I434
I1
I1
g195
tp196
sS'ZbbToLL'
p197
(I2
I624
I1
I1
S'Z+bb'
p198
tp199
sS'DATA'
p200
(I2
I1
I0
I21
S'Observed'
p201
tp202
sS'PhotonJets'
p203
(I2
I632
I0
I1
S'Z+jets (data)'
p204
tp205
sS'ZZ4l'
p206
(I0
I921
I1
I1
g110
tp207
sS'WJets'
p208
(I2
I857
I1
I1
S'W+jets'
p209
tp210
sS'ZZToMuTau'
p211
(I2
I414
I0
I1
S'ZZ (#mu#tau)'
p212
tp213
sS'ZZ4e'
p214
(I2
I809
I1
I1
S'ZZ#rightarrow 4e'
p215
tp216
sS'ttbar'
p217
(I0
I600
I1
I1
S't#bar{t}'
p218
tp219
sS'ttbar_lep'
p220
(I0
I605
I1
I1
S't#bar{t} (lep)'
p221
tp222
sS'QCD_20_MU'
p223
(I2
I799
I1
I1
S'QCD #mu'
p224
tp225
sS'QCD_EM'
p226
(I2
I801
I1
I1
S'QCD e#gamma'
p227
tp228
sS'FAKES_2l'
p229
(I2
I632
I3001
I1
g13
tp230
sS't_t-channel'
p231
(I2
I597
I1
I1
S't (t-channel)'
p232
tp233
sS'FAKEABLE'
p234
(I2
I600
I0
I21
S'Fakeable'
p235
tp236
sS'ZZJets2L2Nu'
p237
(I2
I419
I1
I1
S'ZZ#rightarrow2l2#nu'
p238
tp239
sS'Diboson'
p240
(I0
I921
I1
I1
S'diboson'
p241
tp242
sS'ZGToNuNu'
p243
(I2
I603
I0
I1
S'ZG->#nu#nu'
p244
tp245
sS'higgs'
p246
(I2
I603
I0
I1
g246
tp247
sS'DATA_FAKES'
p248
(I2
I1
I3001
I21
S'Data'
p249
tp250
sS'SIGNIFICANCE'
p251
(I2
I416
I1
I21
S'Signficance'
p252
tp253
sS'DYToMuMu'
p254
(I2
I632
I0
I1
S'Z+jets (#mu#mu)'
p255
tp256
sS'tbarW'
p257
(I2
I598
I1
I1
S'#bar{t}W'
p258
tp259
s.(dp0
S'VV2l'
p1
(lp2
S'ZZJets2L2Nu'
p3
aS'ZZJets2L2Q'
p4
aS'WWJets2L2Nu'
p5
ag3
aS'WZJets2L2Q'
p6
asS'Remove_ss'
p7
(lp8
S'ZJets_M-50'
p9
aS'ZJets_M-10To50'
p10
aS'ttbar'
p11
asS'FAKES_2l'
p12
(lp13
S'WbbToLNu'
p14
ag9
ag10
ag11
aS'tbarW'
p15
aS'tW'
p16
ag5
ag3
ag4
asS'PROMPT_2l'
p17
g13
sS'FAKES_3l'
p18
(lp19
S'WZJets3LNu'
p20
asS'QCD'
p21
(lp22
S'QCD_20_MU'
p23
aS'QCD_20-30_EM'
p24
aS'QCD_30-80_EM'
p25
aS'QCD_80-170_EM'
p26
aS'QCD_170-250_EM'
p27
aS'QCD_250-350_EM'
p28
aS'QCD_350_EM'
p29
asS'PASS'
p30
(lp31
S'DATA_MUON'
p32
aS'DATA_ELECTRON'
p33
aS'DATA_MUEG'
p34
asS'DATA'
p35
g31
sS'FAKEABLE'
p36
g31
sS'top'
p37
(lp38
g11
ag16
ag15
aS't_t-channel'
p39
aS'tbar_t-channel'
p40
asS'ttV'
p41
(lp42
S'ttZ'
p43
aS'ttW'
p44
asS'ZZ4l'
p45
(lp46
S'ZZ4mu'
p47
aS'ZZ4e'
p48
aS'ZZ2e2mu'
p49
aS'ZZ2mu2tau'
p50
aS'ZZ2e2tau'
p51
asS'WGStar'
p52
(lp53
S'WGStarLNu2E'
p54
aS'WGStarLNu2Mu'
p55
aS'WGStarLNu2Tau'
p56
asS'FCNH'
p57
(lp58
S'FCNC_M125_t'
p59
aS'FCNC_M125_t_semilep'
p60
aS'FCNC_M125_t_ZZ'
p61
aS'FCNC_M125_t_TauTau'
p62
asS'VJets'
p63
(lp64
g9
ag10
aS'WJets'
p65
asS'Irreducible'
p66
(lp67
S'ggHToZZ4L_M-125'
p68
aS'WHToWWW3L_M-125'
p69
aS'ggHToWW2L2Nu_M-125'
p70
aS'TTH_M-125'
p71
ag47
ag48
aS'ZZ4tau'
p72
ag49
ag50
ag51
ag43
ag44
aS'ttG'
p73
aS'WWW'
p74
aS'WWZ'
p75
aS'WZZ'
p76
aS'ZZZ'
p77
aS'WWG'
p78
ag20
asS'PROMPT_3l'
p79
g19
sS'QCD_EM'
p80
(lp81
g24
ag25
ag26
ag27
ag28
ag29
asS'Remove_3l'
p82
(lp83
g20
ag47
ag48
ag72
ag49
ag50
ag51
ag43
ag44
ag74
ag75
ag76
ag77
asS'ZJets'
p84
(lp85
g9
ag10
asS'Diboson'
p86
(lp87
g47
ag48
ag72
ag49
ag50
ag51
ag5
ag3
ag20
asS'higgs'
p88
(lp89
g68
ag69
ag70
ag71
asS'Triboson'
p90
(lp91
g74
ag75
ag76
ag77
ag78
asS'WW/ZZ'
p92
(lp93
g47
ag48
ag72
ag49
ag50
ag51
ag5
ag3
asS'DATA_FAKES'
p94
g31
sS'Fakes'
p95
(lp96
S'Fakes_e'
p97
aS'Fakes_mu'
p98
aS'Fakes_ll'
p99
asS'single top'
p100
(lp101
g16
ag15
ag39
ag40
as.(dp0
S'3l_inclusive'
p1
S'3l inclusive'
p2
sS'inclusive'
p3
g3
sS'ss_barrel'
p4
S'ss (BB)'
p5
sS'ss_mixed'
p6
S'ss (EB)'
p7
sS'ZPlusJet_low_met'
p8
S'Z+jet (MET < 20)'
p9
sS'QCD2l_low_met'
p10
S'QCD ll (MET < 20)'
p11
sS'os_inclusive'
p12
S'os inclusive'
p13
sS'3l_mumumu'
p14
S'#mu#mu#mu'
p15
sS'3l_emumu'
p16
S'e#mu#mu'
p17
sS'QCD2l_inclusive'
p18
S'QCD ll'
p19
sS'os_emu'
p20
S'e^{#pm}mu^{#mp}'
p21
sS'high_met'
p22
S'45 < MET < 80'
p23
sS'low_met'
p24
S'MET < 20'
p25
sS'QCD2l_high_met'
p26
S'QCD ll (45 < MET < 80)'
p27
sS'os_ee'
p28
S'e^{#pm}e^{#mp}'
p29
sS'3l_SSSF'
p30
S'(l^{#pm}l^{#pm})l'
p31
sS'ZPlusJet_inclusive'
p32
S'Z+jet'
p33
sS'ss_emu'
p34
S'e^{#pm}#mu^{#pm}'
p35
sS'ZPlusJet_high_met'
p36
S'Z+jet (45 < MET < 80)'
p37
sS'ss_mumu'
p38
S'#mu^{#pm}#mu^{#pm}'
p39
sS'3l_eemu'
p40
S'ee#mu'
p41
sS'os_mumu'
p42
S'#mu^{#pm}#mu^{#mp}'
p43
sS'ss_inclusive'
p44
S'ss inclusive'
p45
sS'ss_endcap'
p46
S'ss (EE)'
p47
sS'ss_ee'
p48
S'e^{#pm}e^{#pm}'
p49
sS'3l_OSSF'
p50
S'(l^{#pm}l^{#mp})l'
p51
sS'3l_eee'
p52
S'eee'
p53
s.(dp0
S'3l_inclusive'
p1
(dp2
S'Fakes_e'
p3
(lp4
F0.0
aF0.0050000000000000001
aF0.040000000000000001
aF0.014
aF0.014999999999999999
aF0.10000000000000001
aF0.01
asS'Irreducible'
p5
(lp6
F0.025999999999999999
aF0.0050000000000000001
aF0.040000000000000001
aF0.014
aF0.014999999999999999
aF0.0
aF0.01
asS'Fakes_ll'
p7
(lp8
F0.0
aF0.0050000000000000001
aF0.040000000000000001
aF0.014
aF0.014999999999999999
aF0.10000000000000001
aF0.01
asS'Fakes_mu'
p9
(lp10
F0.0
aF0.0050000000000000001
aF0.040000000000000001
aF0.014
aF0.014999999999999999
aF0.10000000000000001
aF0.01
assS'ss_barrel'
p11
(dp12
g3
(lp13
F0.0
aF0.0050000000000000001
aF0.040000000000000001
aF0.014
aF0.014999999999999999
aF0.0
aF0.10000000000000001
aF0.01
asg5
(lp14
F0.025999999999999999
aF0.0050000000000000001
aF0.040000000000000001
aF0.014
aF0.014999999999999999
aF0.0
aF0.0
aF0.01
asg7
(lp15
F0.0
aF0.0050000000000000001
aF0.040000000000000001
aF0.014
aF0.014999999999999999
aF0.0
aF0.10000000000000001
aF0.01
asS'QFlips'
p16
(lp17
F0.0
aF0.0050000000000000001
aF0.040000000000000001
aF0.0
aF0.014999999999999999
aF0.01
aF0.0
aF0.01
asg9
(lp18
F0.0
aF0.0050000000000000001
aF0.040000000000000001
aF0.014
aF0.014999999999999999
aF0.0
aF0.10000000000000001
aF0.01
assS'ss_mixed'
p19
(dp20
g3
(lp21
F0.0
aF0.0050000000000000001
aF0.040000000000000001
aF0.014
aF0.014999999999999999
aF0.0
aF0.10000000000000001
aF0.01
asg5
(lp22
F0.025999999999999999
aF0.0050000000000000001
aF0.040000000000000001
aF0.014
aF0.014999999999999999
aF0.0
aF0.0
aF0.01
asg7
(lp23
F0.0
aF0.0050000000000000001
aF0.040000000000000001
aF0.014
aF0.014999999999999999
aF0.0
aF0.10000000000000001
aF0.01
asg16
(lp24
F0.0
aF0.0050000000000000001
aF0.040000000000000001
aF0.0
aF0.014999999999999999
aF0.01
aF0.0
aF0.01
asg9
(lp25
F0.0
aF0.0050000000000000001
aF0.040000000000000001
aF0.014
aF0.014999999999999999
aF0.0
aF0.10000000000000001
aF0.01
assS'ss_emu'
p26
(dp27
g3
(lp28
F0.0
aF0.0050000000000000001
aF0.040000000000000001
aF0.014
aF0.014999999999999999
aF0.0
aF0.10000000000000001
aF0.01
asg5
(lp29
F0.025999999999999999
aF0.0050000000000000001
aF0.040000000000000001
aF0.014
aF0.014999999999999999
aF0.0
aF0.0
aF0.01
asg7
(lp30
F0.0
aF0.0050000000000000001
aF0.040000000000000001
aF0.014
aF0.014999999999999999
aF0.0
aF0.10000000000000001
aF0.01
asg16
(lp31
F0.0
aF0.0050000000000000001
aF0.040000000000000001
aF0.014
aF0.014999999999999999
aF0.01
aF0.0
aF0.01
asg9
(lp32
F0.0
aF0.0050000000000000001
aF0.040000000000000001
aF0.014
aF0.014999999999999999
aF0.0
aF0.10000000000000001
aF0.01
assS'3l_mumumu'
p33
(dp34
g3
(lp35
F0.0
aF0.0050000000000000001
aF0.040000000000000001
aF0.014
aF0.0
aF0.0
aF0.01
asg5
(lp36
F0.025999999999999999
aF0.0050000000000000001
aF0.040000000000000001
aF0.014
aF0.014999999999999999
aF0.0
aF0.01
asg7
(lp37
F0.0
aF0.0050000000000000001
aF0.040000000000000001
aF0.014
aF0.0
aF0.10000000000000001
aF0.01
asg9
(lp38
F0.0
aF0.0050000000000000001
aF0.040000000000000001
aF0.014
aF0.0
aF0.10000000000000001
aF0.01
assS'3l_emumu'
p39
(dp40
g3
(lp41
F0.0
aF0.0050000000000000001
aF0.040000000000000001
aF0.014
aF0.014999999999999999
aF0.10000000000000001
aF0.01
asg5
(lp42
F0.025999999999999999
aF0.0050000000000000001
aF0.040000000000000001
aF0.014
aF0.014999999999999999
aF0.0
aF0.01
asg7
(lp43
F0.0
aF0.0050000000000000001
aF0.040000000000000001
aF0.014
aF0.014999999999999999
aF0.10000000000000001
aF0.01
asg9
(lp44
F0.0
aF0.0050000000000000001
aF0.040000000000000001
aF0.014
aF0.014999999999999999
aF0.20000000000000001
aF0.01
assS'ss_mumu'
p45
(dp46
g3
(lp47
F0.0
aF0.0050000000000000001
aF0.040000000000000001
aF0.014
aF0.0
aF0.0
aF0.0
aF0.01
asg5
(lp48
F0.025999999999999999
aF0.0050000000000000001
aF0.040000000000000001
aF0.014
aF0.0
aF0.0
aF0.0
aF0.01
asg7
(lp49
F0.0
aF0.0050000000000000001
aF0.040000000000000001
aF0.014
aF0.0
aF0.0
aF0.10000000000000001
aF0.01
asg9
(lp50
F0.0
aF0.0050000000000000001
aF0.040000000000000001
aF0.014
aF0.0
aF0.0
aF0.10000000000000001
aF0.01
assS'3l_eemu'
p51
(dp52
g3
(lp53
F0.0
aF0.0050000000000000001
aF0.040000000000000001
aF0.014
aF0.014999999999999999
aF0.10000000000000001
aF0.01
asg5
(lp54
F0.025999999999999999
aF0.0050000000000000001
aF0.040000000000000001
aF0.014
aF0.014999999999999999
aF0.0
aF0.01
asg7
(lp55
F0.0
aF0.0050000000000000001
aF0.040000000000000001
aF0.014
aF0.014999999999999999
aF0.10000000000000001
aF0.01
asg9
(lp56
F0.0
aF0.0050000000000000001
aF0.040000000000000001
aF0.014
aF0.014999999999999999
aF0.10000000000000001
aF0.01
assS'3l_eee'
p57
(dp58
g3
(lp59
F0.0
aF0.0050000000000000001
aF0.040000000000000001
aF0.0
aF0.014999999999999999
aF0.10000000000000001
aF0.01
asg5
(lp60
F0.025999999999999999
aF0.0050000000000000001
aF0.040000000000000001
aF0.014
aF0.014999999999999999
aF0.0
aF0.01
asg7
(lp61
F0.0
aF0.0050000000000000001
aF0.040000000000000001
aF0.0
aF0.014999999999999999
aF0.10000000000000001
aF0.01
asg9
(lp62
F0.0
aF0.0050000000000000001
aF0.040000000000000001
aF0.0
aF0.014999999999999999
aF0.0
aF0.01
assS'ss_endcap'
p63
(dp64
g3
(lp65
F0.0
aF0.0050000000000000001
aF0.040000000000000001
aF0.014
aF0.014999999999999999
aF0.0
aF0.10000000000000001
aF0.01
asg5
(lp66
F0.025999999999999999
aF0.0050000000000000001
aF0.040000000000000001
aF0.014
aF0.014999999999999999
aF0.0
aF0.0
aF0.01
asg7
(lp67
F0.0
aF0.0050000000000000001
aF0.040000000000000001
aF0.014
aF0.014999999999999999
aF0.0
aF0.10000000000000001
aF0.01
asg16
(lp68
F0.0
aF0.0050000000000000001
aF0.040000000000000001
aF0.0
aF0.014999999999999999
aF0.01
aF0.0
aF0.01
asg9
(lp69
F0.0
aF0.0050000000000000001
aF0.040000000000000001
aF0.014
aF0.014999999999999999
aF0.0
aF0.10000000000000001
aF0.01
assS'ss_ee'
p70
(dp71
g3
(lp72
F0.0
aF0.0050000000000000001
aF0.040000000000000001
aF0.0
aF0.014999999999999999
aF0.0
aF0.10000000000000001
aF0.01
asg5
(lp73
F0.025999999999999999
aF0.0050000000000000001
aF0.040000000000000001
aF0.0
aF0.014999999999999999
aF0.0
aF0.0
aF0.01
asg7
(lp74
F0.0
aF0.0050000000000000001
aF0.040000000000000001
aF0.0
aF0.014999999999999999
aF0.0
aF0.10000000000000001
aF0.01
asg16
(lp75
F0.0
aF0.0050000000000000001
aF0.040000000000000001
aF0.0
aF0.014999999999999999
aF0.01
aF0.0
aF0.01
asg9
(lp76
F0.0
aF0.0050000000000000001
aF0.040000000000000001
aF0.0
aF0.014999999999999999
aF0.0
aF0.0
aF0.01
assS'ss_inclusive'
p77
(dp78
g3
(lp79
F0.0
aF0.0050000000000000001
aF0.040000000000000001
aF0.014
aF0.014999999999999999
aF0.0
aF0.10000000000000001
aF0.01
asg5
(lp80
F0.025999999999999999
aF0.0050000000000000001
aF0.040000000000000001
aF0.014
aF0.014999999999999999
aF0.0
aF0.0
aF0.01
asg7
(lp81
F0.0
aF0.0050000000000000001
aF0.040000000000000001
aF0.014
aF0.014999999999999999
aF0.0
aF0.10000000000000001
aF0.01
asg16
(lp82
F0.0
aF0.0050000000000000001
aF0.040000000000000001
aF0.014
aF0.014999999999999999
aF0.01
aF0.0
aF0.01
asg9
(lp83
F0.0
aF0.0050000000000000001
aF0.040000000000000001
aF0.014
aF0.014999999999999999
aF0.0
aF0.10000000000000001
aF0.01
ass.