(dp0
S'2011'
p1
(dp2
S'tW'
p3
F7.8700000000000001
sS'GluGluWW'
p4
F0.15049999999999999
sS'WW'
p5
F4.5099999999999998
sS'QFlips'
p6
F1.0
sS'WZJets2L2Q'
p7
F1.8329
sS'ZbbToLL'
p8
F304.0
sS'WZ'
p9
F0.59599999999999997
sS'ZZJets2L2Q'
p10
F0.62460000000000004
sS'ZJets_M-50'
p11
F3048.0
sS'DATA_MUEG'
p12
F1.0
sS'FCNC_M125_t'
p13
F0.0040000000000000001
sS'WJets'
p14
I31314
sS'ttbar'
p15
I165
sS'DATA_MUON'
p16
F1.0
sS'DYToTauTau'
p17
F1666.0
sS'ZG'
p18
F159.12
sS'ZZ'
p19
F0.214
sS'WWJets2L2Nu'
p20
F4.7830000000000004
sS'WZJets3LNu'
p21
F0.85599999999999998
sS'ZJets_M-10To50'
p22
F742.60000000000002
sS'ZZJets2L2Nu'
p23
F0.1787
sS'FCNC_M125_tbar'
p24
F0.0040000000000000001
sS'ZGToNuNu'
p25
F3.4620000000000002
sS'DATA_ELECTRON'
p26
F1.0
sS'DYToEE'
p27
F1666.0
sS'Fakes'
p28
F1.0
sS'DYToMuMu'
p29
F1666.0
sS'tbarW'
p30
F7.8700000000000001
ssS'2012'
p31
(dp32
S'WG'
p33
F1000.0
sg13
F0.018427822963199999
sS'FCNC_M125_t_TauTau'
p34
F0.10287648000000001
sg3
F11.77
sS'tbar_t-channel'
p35
F30.699999999999999
sg4
F0.15049999999999999
sg5
F54.799999999999997
sS'QCD_80-170_EM'
p36
I183722
sS'QCD_250-350_EM'
p37
F556.75
sS'WHToWWW3L_M-125'
p38
F0.019034999999999996
sg6
F1.0
sS'ggHToZZ4L_M-125'
p39
F0.0041271119999999996
sg7
F5.0899999999999999
sg17
F1666.0
sg8
F94.099999999999994
sS'WWZ'
p40
F0.063
sS'ZZ4tau'
p41
F0.076910000000000006
sg9
F32.299999999999997
sg10
F1.28
sS'ttZ'
p42
F0.20799999999999999
sS'ZZZ'
p43
F0.0045999999999999999
sg11
F3532.8000000000002
sS'WGStarLNu2Mu'
p44
F1.9139999999999999
sS'FCNC_M125_t_semilep'
p45
F0.23068904302080004
sS'ttW'
p46
F0.249
sS'ZZ4mu'
p47
F0.076910000000000006
sg28
F1.0
sg14
I31314
sS'TTH_M-125'
p48
F0.1032
sS'QCD_170-250_EM'
p49
I4588
sS'ZZ2mu2tau'
p50
F0.1767
sS'ZZ4e'
p51
F0.076910000000000006
sg15
F244.76400000000001
sS'ZGstar'
p52
F0.5
sS'ttG'
p53
F1.4399999999999999
sg16
F1.0
sS'WZZ'
p54
F0.019199999999999998
sS'ZZJets4L'
p55
F0.092100000000000001
sS'WGStarLNu2E'
p56
F5.8730000000000002
sg18
F159.12
sS'ZZ2e2mu'
p57
F0.1767
sS'QCD_30-80_EM'
p58
F4615893.0
sS'QCD_20-30_EM'
p59
F2920632.0
sg19
F7.7000000000000002
sS't_t-channel'
p60
F55.530000000000001
sg20
F5.9950000000000001
sg21
F1.0860000000000001
sg22
F860.5
sS'ggHToWW2L2Nu_M-125'
p61
F0.37345499999999993
sg23
F0.36499999999999999
sg24
F0.018427822963199999
sS'WWW'
p62
F0.082000000000000003
sg25
F3.4620000000000002
sg26
F1.0
sg27
F1666.0
sS'WbbToLNu'
p63
F39.899999999999999
sS'WGStarLNu2Tau'
p64
F0.33600000000000002
sg12
F1.0
sS'WWG'
p65
F0.52800000000000002
sS'ZZ2e2tau'
p66
F0.1767
sS'QCD_350_EM'
p67
F89.099999999999994
sS'QCD_20_MU'
p68
F84679.0
sS'FCNC_M125_t_ZZ'
p69
F0.0081909273600000009
sg29
F1666.0
sg30
F11.77
ss.(dp0
S'WG'
p1
(I0
I859
I1
I1
S'WG*'
p2
tp3
sS'ZZToEE'
p4
(I2
I413
I0
I1
S'ZZ (ee)'
p5
tp6
sS'RATIO'
p7
(I0
I1
I3002
I21
S'Ratio'
p8
tp9
sS'WW/ZZ'
p10
(I0
I921
I1
I1
g10
tp11
sS'tbar_t-channel'
p12
(I2
I596
I1
I1
S'#bar{t} (t-channel)'
p13
tp14
sS'QCD'
p15
(I2
I800
I1
I1
g15
tp16
sS'tbarW'
p17
(I2
I598
I1
I1
S'#bar{t}W'
p18
tp19
sS'WW'
p20
(I2
I412
I0
I1
g20
tp21
sS'GJets_15to30'
p22
(I2
I402
I0
I1
S'gamma+jets'
p23
tp24
sS'tW'
p25
(I2
I599
I1
I1
g25
tp26
sS'ZZToEMu'
p27
(I2
I414
I0
I1
S'ZZ (e#mu)'
p28
tp29
sS'SUM_EFF'
p30
(I1
I600
I3018
I21
S'BG'
p31
tp32
sS'single top'
p33
(I0
I602
I3004
I1
S't'
p34
tp35
sS'WZJets2L2Q'
p36
(I3
I597
I0
I1
S'WZ#rightarrow2l2q'
p37
tp38
sS'DYToTauTau'
p39
(I2
I629
I0
I1
S'Z+jets (#tau#tau)'
p40
tp41
sS'ZbbToLL'
p42
(I2
I624
I1
I1
S'Z+bb'
p43
tp44
sS'WWZ'
p45
(I0
I433
I1
I1
g45
tp46
sS'DATA'
p47
(I2
I1
I0
I21
S'Observed'
p48
tp49
sS'ZZToTauTau'
p50
(I2
I418
I0
I1
S'ZZ (#tau#tau)'
p51
tp52
sS'SIG_EFF'
p53
(I1
I632
I3018
I21
S'Signal'
p54
tp55
sS'ZZJets2L2Q'
p56
(I2
I593
I1
I1
S'ZZ#rightarrow2l2q'
p57
tp58
sS'ttZ'
p59
(I0
I417
I1
I1
S't#bar{t}Z'
p60
tp61
sS'WZJets3LNu'
p62
(I3
I617
I3004
I1
S'WZ#rightarrow3l#nu'
p63
tp64
sS'PhotonJets'
p65
(I2
I632
I0
I1
S'Z+jets (data)'
p66
tp67
sS'ZZZ'
p68
(I0
I435
I1
I1
g68
tp69
sS'ZJets_M-50'
p70
(I0
I633
I1
I1
S'Z+jets (M_{Z/#gamma*} > 50)'
p71
tp72
sS'WGStarLNu2Mu'
p73
(I0
I860
I1
I1
S'WG*#ell#nu2#mu'
p74
tp75
sS'DATA_MUEG'
p76
(I2
I922
I0
I21
S'Observed (e#mu)'
p77
tp78
sS'ZZ4tau'
p79
(I2
I808
I1
I1
S'ZZ#rightarrow 4#tau'
p80
tp81
sS'top'
p82
(I0
I601
I1
I1
S't#bar{t}/t'
p83
tp84
sS'ttW'
p85
(I0
I418
I1
I1
S't#bar{t}W'
p86
tp87
sS'ttV'
p88
(I0
I417
I1
I1
S't#bar{t}V'
p89
tp90
sS'ZZ4mu'
p91
(I2
I810
I1
I1
S'ZZ#rightarrow 4l'
p92
tp93
sS'ZZ4l'
p94
(I0
I921
I1
I1
S'ZZ#rightarrow4l'
p95
tp96
sS'WJets'
p97
(I2
I857
I1
I1
S'W+jets'
p98
tp99
sS'Fakes'
p100
(I2
I1
I3001
I1
g100
tp101
sS'ZZToMuTau'
p102
(I2
I414
I0
I1
S'ZZ (#mu#tau)'
p103
tp104
sS'ZZ2mu2tau'
p105
(I2
I805
I1
I1
S'ZZ#rightarrow 2#mu2#tau'
p106
tp107
sS'ZZ4e'
p108
(I2
I809
I1
I1
S'ZZ#rightarrow 4e'
p109
tp110
sS'ZJets_M-10To50'
p111
(I0
I634
I1
I1
S'Z+jets (M_{Z/#gamma*} < 50)'
p112
tp113
sS'ZGstar'
p114
(I2
I603
I0
I1
S'Z#gamma^{*}'
p115
tp116
sS'ttG'
p117
(I0
I419
I1
I1
S't#bar{t}G'
p118
tp119
sS'DATA_MUON'
p120
(I2
I920
I0
I21
S'Observed (#mu#mu)'
p121
tp122
sS'WZZ'
p123
(I0
I434
I1
I1
g123
tp124
sS'ZZJets4L'
p125
(I2
I602
I1
I1
g95
tp126
sS'WGStarLNu2E'
p127
(I0
I860
I1
I1
S'WG*#ell#nu2e'
p128
tp129
sS'ZG'
p130
(I0
I623
I1
I1
S'Z#gamma'
p131
tp132
sS'WZ'
p133
(I2
I909
I0
I1
g133
tp134
sS'WWW'
p135
(I0
I432
I1
I1
g135
tp136
sS'QCD_EM'
p137
(I2
I801
I1
I1
S'QCD e#gamma'
p138
tp139
sS'ZZToMuMu'
p140
(I2
I419
I0
I1
S'ZZ#rightarrow 4l '
p141
tp142
sS'FCNH'
p143
(I3
I903
I2
I22
g143
tp144
sS'ZZ'
p145
(I2
I804
I0
I1
g145
tp146
sS't_t-channel'
p147
(I2
I597
I1
I1
S't (t-channel)'
p148
tp149
sS'WWJets2L2Nu'
p150
(I0
I921
I1
I1
S'WW#rightarrow2l2#nu'
p151
tp152
sS'ZJets'
p153
(I0
I632
I1
I1
S'Z+jets'
p154
tp155
sS'ttbar'
p156
(I0
I600
I1
I1
S't#bar{t}'
p157
tp158
sS'ZZJets2L2Nu'
p159
(I2
I419
I1
I1
S'ZZ#rightarrow2l2#nu'
p160
tp161
sS'ZZ2e2mu'
p162
(I2
I807
I1
I1
S'ZZ#rightarrow 2e2#mu'
p163
tp164
sS'Diboson'
p165
(I0
I921
I1
I1
S'diboson'
p166
tp167
sS'ZGToNuNu'
p168
(I2
I603
I0
I1
S'ZG->#nu#nu'
p169
tp170
sS'higgs'
p171
(I2
I603
I0
I1
g171
tp172
sS'Triboson'
p173
(I0
I432
I1
I1
S'triboson'
p174
tp175
sS'FAKE_2l'
p176
(I2
I632
I3001
I1
S'Prompt'
p177
tp178
sS'DATA_ELECTRON'
p179
(I2
I921
I0
I21
S'Observed (ee)'
p180
tp181
sS'DATA_FAKES'
p182
(I2
I1
I0
I21
g100
tp183
sS'DYToEE'
p184
(I2
I632
I0
I1
S'Z+jets (ee)'
p185
tp186
sS'WbbToLNu'
p187
(I2
I858
I1
I1
S'W+bb'
p188
tp189
sS'WGStarLNu2Tau'
p190
(I0
I860
I1
I1
S'WG*#ell#nu2#tau'
p191
tp192
sS'FAKE_3l'
p193
(I2
I600
I3001
I1
g177
tp194
sS'WWG'
p195
(I0
I436
I1
I1
g195
tp196
sS'ZZ2e2tau'
p197
(I2
I806
I1
I1
S'ZZ#rightarrow 2e2#tau'
p198
tp199
sS'QCD_20_MU'
p200
(I2
I799
I1
I1
S'QCD #mu'
p201
tp202
sS'DYToMuMu'
p203
(I2
I632
I0
I1
S'Z+jets (#mu#mu)'
p204
tp205
sS'VJets'
p206
(I0
I632
I1
I1
S'V+jets'
p207
tp208
sS'ZZToETau'
p209
(I2
I414
I0
I1
S'ZZ (e#tau)'
p210
tp211
sS'BGERROR'
p212
(I0
I1
I3018
I0
S'BG error'
p213
tp214
sS'QFlips'
p215
(I2
I602
I3001
I1
g215
tp216
s.(dp0
S'FCNH'
p1
(lp2
S'FCNC_M125_t'
p3
aS'FCNC_M125_tbar'
p4
aS'FCNC_M125_t_semilep'
p5
aS'FCNC_M125_t_ZZ'
p6
aS'FCNC_M125_t_TauTau'
p7
asS'higgs'
p8
(lp9
S'ggHToZZ4L_M-125'
p10
aS'WHToWWW3L_M-125'
p11
aS'ggHToWW2L2Nu_M-125'
p12
aS'TTH_M-125'
p13
asS'FAKE_3l'
p14
(lp15
S'WZJets3LNu'
p16
asS'top'
p17
(lp18
S'ttbar'
p19
aS'tW'
p20
aS'tbarW'
p21
aS't_t-channel'
p22
aS'tbar_t-channel'
p23
asS'QCD'
p24
(lp25
S'QCD_20_MU'
p26
aS'QCD_20-30_EM'
p27
aS'QCD_30-80_EM'
p28
aS'QCD_80-170_EM'
p29
aS'QCD_170-250_EM'
p30
aS'QCD_250-350_EM'
p31
aS'QCD_350_EM'
p32
asS'WW/ZZ'
p33
(lp34
S'ZZ4mu'
p35
aS'ZZ4e'
p36
aS'ZZ4tau'
p37
aS'ZZ2e2mu'
p38
aS'ZZ2mu2tau'
p39
aS'ZZ2e2tau'
p40
aS'WWJets2L2Nu'
p41
aS'ZZJets2L2Nu'
p42
asS'DATA_FAKES'
p43
(lp44
S'DATA_MUON'
p45
aS'DATA_ELECTRON'
p46
aS'DATA_MUEG'
p47
asS'ttV'
p48
(lp49
S'ttZ'
p50
aS'ttW'
p51
aS'ttG'
p52
asS'ZZ4l'
p53
(lp54
g35
ag36
ag37
ag38
ag39
ag40
asS'FAKE_2l'
p55
(lp56
S'WbbToLNu'
p57
aS'ZJets_M-50'
p58
aS'ZJets_M-10To50'
p59
ag19
ag21
ag20
ag41
ag42
aS'ZZJets2L2Q'
p60
asS'Diboson'
p61
(lp62
g35
ag36
ag37
ag38
ag39
ag40
ag41
ag42
ag16
asS'WGStar'
p63
(lp64
S'WGStarLNu2E'
p65
aS'WGStarLNu2Mu'
p66
aS'WGStarLNu2Tau'
p67
asS'QCD_EM'
p68
(lp69
g27
ag28
ag29
ag30
ag31
ag32
asS'single top'
p70
(lp71
g20
ag21
ag22
ag23
asS'ZJets'
p72
(lp73
g58
ag59
asS'DATA'
p74
(lp75
g45
ag46
ag47
asS'Triboson'
p76
(lp77
S'WWW'
p78
aS'WWZ'
p79
aS'WZZ'
p80
aS'ZZZ'
p81
aS'WWG'
p82
asS'VJets'
p83
(lp84
g58
ag59
aS'WJets'
p85
as.(dp0
S'3l_inclusive'
p1
S'3l inclusive'
p2
sS'inclusive'
p3
g3
sS'QCD2l_high_met'
p4
S'QCD #ell#ell (45 < MET < 80)'
p5
sS'ZPlusJet_low_met'
p6
S'Z+jet (MET < 20)'
p7
sS'QCD2l_low_met'
p8
S'QCD #ell#ell (MET < 20)'
p9
sS'os_inclusive'
p10
S'os inclusive'
p11
sS'3l_mumumu'
p12
S'#mu#mu#mu'
p13
sS'3l_emumu'
p14
S'e#mu#mu'
p15
sS'QCD2l_inclusive'
p16
S'QCD #ell#ell'
p17
sS'os_emu'
p18
S'e^{#pm}mu^{#mp}'
p19
sS'high_met'
p20
S'45 < MET < 80'
p21
sS'low_met'
p22
S'MET < 20'
p23
sS'os_ee'
p24
S'e^{#pm}e^{#mp}'
p25
sS'3l_SSSF'
p26
S'(l^{#pm}l^{#pm})l'
p27
sS'ZPlusJet_inclusive'
p28
S'Z+jet'
p29
sS'ss_emu'
p30
S'e^{#pm}#mu^{#pm}'
p31
sS'ZPlusJet_high_met'
p32
S'Z+jet (45 < MET < 80)'
p33
sS'ss_mumu'
p34
S'#mu^{#pm}#mu^{#pm}'
p35
sS'3l_eemu'
p36
S'ee#mu'
p37
sS'os_mumu'
p38
S'#mu^{#pm}#mu^{#mp}'
p39
sS'ss_inclusive'
p40
S'ss inclusive'
p41
sS'ss_ee'
p42
S'e^{#pm}e^{#pm}'
p43
sS'3l_OSSF'
p44
S'(l^{#pm}l^{#mp})l'
p45
sS'3l_eee'
p46
S'eee'
p47
s.