(dp0
S'2011'
p1
(dp2
S'tW'
p3
F7.8700000000000001
sS'GluGluWW'
p4
F0.15049999999999999
sS'fakes'
p5
F1.0
sS'WW'
p6
F4.5099999999999998
sS'WZJets2L2Q'
p7
F1.8329
sS'ZbbToLL'
p8
F304.0
sS'WZ'
p9
F0.59599999999999997
sS'ZZJets2L2Q'
p10
F0.62460000000000004
sS'ZJets'
p11
F3048.0
sS'DATA_MUEG'
p12
F1.0
sS'FCNC_M125_t'
p13
F0.0040000000000000001
sS'WJets'
p14
I31314
sS'ttbar'
p15
I165
sS'DATA_MUON'
p16
F1.0
sS'DYToTauTau'
p17
F1666.0
sS'ZG'
p18
F159.12
sS'ZZ'
p19
F0.214
sS'WWJets2L2Nu'
p20
F4.7830000000000004
sS'WZJets3LNu'
p21
F0.85599999999999998
sS'ZJets_M-10To50'
p22
F742.60000000000002
sS'ZZJets2L2Nu'
p23
F0.1787
sS'FCNC_M125_tbar'
p24
F0.0040000000000000001
sS'ZGToNuNu'
p25
F3.4620000000000002
sS'DATA_ELECTRON'
p26
F1.0
sS'DYToEE'
p27
F1666.0
sS'DYToMuMu'
p28
F1666.0
sS'tbarW'
p29
F7.8700000000000001
ssS'2012'
p30
(dp31
S'WG'
p32
F1000.0
sg13
F0.0074000000000000003
sg3
F11.77
sS'tbar_t-channel'
p33
F30.0
sg4
F0.15049999999999999
sg5
F1.0
sg6
F54.799999999999997
sS'QCD_80-170_EM'
p34
I183722
sS'QCD_250-350_EM'
p35
F556.75
sS'WHToWWW3L_M-125'
p36
F0.01
sS'ggHToZZ4L_M-125'
p37
F0.01
sg7
F5.0899999999999999
sg17
F1666.0
sg8
F100.0
sS'WWZ'
p38
F0.063
sS'ZZ4tau'
p39
F0.076910000000000006
sg9
F32.299999999999997
sg10
F1.28
sS'ttZ'
p40
F0.20799999999999999
sg11
F3532.8000000000002
sS'ZZZ'
p41
F0.0045999999999999999
sg12
F1.0
sS'ttW'
p42
F0.249
sS'ZZ4mu'
p43
F0.076910000000000006
sg14
I31314
sS'QCD_170-250_EM'
p44
I4588
sS'ZZ2mu2tau'
p45
F0.1767
sS'ZZ4e'
p46
F0.076910000000000006
sg15
I234
sS'ttG'
p47
F1.4399999999999999
sg16
F1.0
sS'WZZ'
p48
F0.019199999999999998
sS'ZZJets4L'
p49
F0.092100000000000001
sg18
F159.12
sS'ZZ2e2mu'
p50
F0.1767
sS'QCD_30-80_EM'
p51
F4615893.0
sS'QCD_20-30_EM'
p52
F2920632.0
sg19
F7.7000000000000002
sS't_t-channel'
p53
F55.530000000000001
sg20
F5.9950000000000001
sg21
F1.0860000000000001
sg22
F860.5
sS'ggHToWW2L2Nu_M-125'
p54
F0.01
sg23
F0.36499999999999999
sg24
F0.0074000000000000003
sS'WWW'
p55
F0.082000000000000003
sg25
F3.4620000000000002
sg26
F1.0
sg27
F1666.0
sS'WbbToLNu'
p56
F10000.0
sS'WWG'
p57
F0.52800000000000002
sS'ZZ2e2tau'
p58
F0.1767
sS'QCD_350_EM'
p59
F89.099999999999994
sS'QCD_20_MU'
p60
F84679.0
sg28
F1666.0
sg29
F11.77
ss.(dp0
S'WG'
p1
(I0
I860
I1
I1
g1
tp2
sS'ZZToEE'
p3
(I2
I413
I0
I1
S'ZZ (ee)'
p4
tp5
sS'RATIO'
p6
(I0
I1
I3002
I21
S'Ratio'
p7
tp8
sS'tW'
p9
(I2
I401
I1
I1
S'top'
p10
tp11
sS'tbar_t-channel'
p12
(I2
I404
I1
I1
S'#bar{t} (t-channel)'
p13
tp14
sS'fakes'
p15
(I2
I1
I0
I21
g15
tp16
sS'WW'
p17
(I2
I412
I0
I1
g17
tp18
sS'GJets_15to30'
p19
(I2
I402
I0
I1
S'gamma+jets'
p20
tp21
sS'ZZToEMu'
p22
(I2
I414
I0
I1
S'ZZ (e#mu)'
p23
tp24
sS'SUM_EFF'
p25
(I1
I600
I3018
I21
S'BG'
p26
tp27
sS'WZJets2L2Q'
p28
(I3
I597
I0
I1
S'WZ->2l2q'
p29
tp30
sS'DYToTauTau'
p31
(I2
I629
I0
I1
S'Z+jets (#tau#tau)'
p32
tp33
sS'ZbbToLL'
p34
(I2
I624
I1
I1
S'Z+bb'
p35
tp36
sS'WWZ'
p37
(I0
I433
I1
I1
g37
tp38
sS'ZZToTauTau'
p39
(I2
I418
I0
I1
S'ZZ (#tau#tau)'
p40
tp41
sS'ZZJets2L2Q'
p42
(I2
I593
I1
I1
S'ZZ->2l2q'
p43
tp44
sS'ttZ'
p45
(I0
I417
I1
I1
S't#bar{t}Z'
p46
tp47
sS'ZJets'
p48
(I0
I632
I1
I1
S'V+jets'
p49
tp50
sS'PhotonJets'
p51
(I2
I632
I0
I1
S'Z+jets (data)'
p52
tp53
sS'ZZZ'
p54
(I0
I435
I1
I1
g54
tp55
sS'DATA_MUEG'
p56
(I2
I1
I0
I21
S'Observed (#mu e+x)'
p57
tp58
sS'ZZToETau'
p59
(I2
I414
I0
I1
S'ZZ (e#tau)'
p60
tp61
sS'ttW'
p62
(I0
I418
I1
I1
S't#bar{t}W'
p63
tp64
sS'ZZ4mu'
p65
(I2
I923
I1
I1
S'ZZ#rightarrow 4l'
p66
tp67
sS'WJets'
p68
(I2
I429
I1
I1
S'W+jets'
p69
tp70
sS'ZZToMuTau'
p71
(I2
I414
I0
I1
S'ZZ (#mu#tau)'
p72
tp73
sS'SIG_EFF'
p74
(I1
I632
I3018
I21
S'Signal'
p75
tp76
sS'ttbar'
p77
(I0
I601
I1
I1
S't#bar{t}'
p78
tp79
sS'ttG'
p80
(I0
I419
I1
I1
S't#bar{t}G'
p81
tp82
sS'DATA_MUON'
p83
(I2
I1
I0
I21
S'Observed'
p84
tp85
sS'WZZ'
p86
(I0
I434
I1
I1
g86
tp87
sS'ZZJets4L'
p88
(I2
I602
I1
I1
S'ZZ->4l'
p89
tp90
sS'ZG'
p91
(I0
I623
I1
I1
S'Z#gamma'
p92
tp93
sS'WZ'
p94
(I2
I909
I0
I1
g94
tp95
sS'ZZ'
p96
(I2
I804
I0
I1
g96
tp97
sS't_t-channel'
p98
(I2
I403
I1
I1
S't (t-channel)'
p99
tp100
sS'WWJets2L2Nu'
p101
(I0
I921
I1
I1
S'Diboson'
p102
tp103
sS'WZJets3LNu'
p104
(I3
I603
I0
I1
S'WZ->3l#nu'
p105
tp106
sS'ZJets_M-10To50'
p107
(I0
I634
I1
I1
S'Z+jets (M_{Z/#gamma*} < 50)'
p108
tp109
sS'ZZJets2L2Nu'
p110
(I2
I419
I1
I1
S'ZZ->2l2#nu'
p111
tp112
sS'WWW'
p113
(I0
I432
I1
I1
g113
tp114
sS'ZZToMuMu'
p115
(I2
I419
I0
I1
S'ZZ#rightarrow 4l '
p116
tp117
sS'ZGToNuNu'
p118
(I2
I603
I0
I1
S'ZG->#nu#nu'
p119
tp120
sS'DATA_ELECTRON'
p121
(I2
I1
I0
I21
S'Observed (ee+x)'
p122
tp123
sS'DYToEE'
p124
(I2
I632
I0
I1
S'Z+jets (ee)'
p125
tp126
sS'WbbToLNu'
p127
(I2
I430
I1
I1
S'W+bb'
p128
tp129
sS'WWG'
p130
(I0
I436
I1
I1
g130
tp131
sS'ggHToZZ4L_M-125'
p132
(I2
I603
I0
I1
S'higgs'
p133
tp134
sS'QCD_20_MU'
p135
(I2
I800
I1
I1
S'QCD'
p136
tp137
sS'FCNC_M125_t'
p138
(I3
I903
I2
I22
g75
tp139
sS'DYToMuMu'
p140
(I2
I632
I0
I1
S'Z+jets (#mu#mu)'
p141
tp142
sS'tbarW'
p143
(I2
I402
I1
I1
S'#bar{t}W'
p144
tp145
sS'BGERROR'
p146
(I0
I1
I3018
I0
S'BG error'
p147
tp148
s.(dp0
S'tW'
p1
(lp2
S'tbarW'
p3
aS't_t-channel'
p4
aS'tbar_t-channel'
p5
asS'FCNC_M125_t'
p6
(lp7
S'FCNC_M125_tbar'
p8
asS'ggHToZZ4L_M-125'
p9
(lp10
S'WHToWWW3L_M-125'
p11
asS'WW'
p12
(lp13
S'GluGluWW'
p14
asS'GJets_15to30'
p15
(lp16
S'GJets_30to50'
p17
aS'GJets_50to80'
p18
aS'GJets_80to120'
p19
aS'GJets_120to170'
p20
aS'GJets_170to300'
p21
aS'GJets_300to470'
p22
aS'GJets_470to800'
p23
asS'QCD_20_MU'
p24
(lp25
S'QCD_20-30_EM'
p26
aS'QCD_30-80_EM'
p27
aS'QCD_80-170_EM'
p28
aS'QCD_170-250_EM'
p29
aS'QCD_250-350_EM'
p30
aS'QCD_350_EM'
p31
asS'ttbar'
p32
(lp33
g1
ag3
ag4
ag5
asS'ZJets'
p34
(lp35
S'ZJets_M-10To50'
p36
aS'WJets'
p37
asS'WWJets2L2Nu'
p38
(lp39
S'ZZJets2L2Nu'
p40
aS'ZZ4mu'
p41
aS'ZZ4e'
p42
aS'ZZ4tau'
p43
aS'ZZ2e2mu'
p44
aS'ZZ2mu2tau'
p45
aS'ZZ2e2tau'
p46
aS'WZJets3LNu'
p47
asS'DATA_MUON'
p48
(lp49
S'DATA_ELECTRON'
p50
aS'DATA_MUEG'
p51
as.(dp0
S'3l_emumu'
p1
S'e#mu#mu'
p2
sS'ss_mumu'
p3
S'#mu^{#pm}#mu^{#pm}'
p4
sS'3l_SSSF'
p5
S'(l^{#pm}l^{#pm})l'
p6
sS'inclusive'
p7
g7
sS'os_emu'
p8
S'e^{#pm}mu^{#mp}'
p9
sS'3l_eemu'
p10
S'ee#mu'
p11
sS'3l_inclusive'
p12
S'3l inclusive'
p13
sS'ss_emu'
p14
S'e^{#pm}#mu^{#pm}'
p15
sS'3l_eee'
p16
S'eee'
p17
sS'ss_ee'
p18
S'e^{#pm}e^{#pm}'
p19
sS'os_mumu'
p20
S'#mu^{#pm}#mu^{#mp}'
p21
sS'os_inclusive'
p22
S'os inclusive'
p23
sS'3l_OSSF'
p24
S'(l^{#pm}l^{#mp})l'
p25
sS'ss_inclusive'
p26
S'ss inclusive'
p27
sS'os_ee'
p28
S'e^{#pm}e^{#mp}'
p29
sS'3l_mumumu'
p30
S'#mu#mu#mu'
p31
s.