(dp0
S'2011'
p1
(dp2
S'tW'
p3
F7.8700000000000001
sS'GluGluWW'
p4
F0.15049999999999999
sS'fakes'
p5
F1.0
sS'WW'
p6
F4.5099999999999998
sS'WZJets2L2Q'
p7
F1.8329
sS'ZbbToLL'
p8
F304.0
sS'WZ'
p9
F0.59599999999999997
sS'ZZJets2L2Q'
p10
F0.62460000000000004
sS'ZJets'
p11
F3048.0
sS'DATA_MUEG'
p12
F1.0
sS'FCNC_M125_t'
p13
F0.0040000000000000001
sS'WJets'
p14
I31314
sS'ttbar'
p15
I165
sS'DATA_MUON'
p16
F1.0
sS'DYToTauTau'
p17
F1666.0
sS'ZG'
p18
F159.12
sS'ZZ'
p19
F0.214
sS'WWJets2L2Nu'
p20
F4.7830000000000004
sS'WZJets3LNu'
p21
F0.85599999999999998
sS'ZJets_M-10To50'
p22
F742.60000000000002
sS'ZZJets2L2Nu'
p23
F0.1787
sS'FCNC_M125_tbar'
p24
F0.0040000000000000001
sS'ZGToNuNu'
p25
F3.4620000000000002
sS'DATA_ELECTRON'
p26
F1.0
sS'DYToEE'
p27
F1666.0
sS'DYToMuMu'
p28
F1666.0
sS'tbarW'
p29
F7.8700000000000001
ssS'2012'
p30
(dp31
S'WG'
p32
F1000.0
sg13
F0.0074000000000000003
sg3
F11.77
sS'tbar_t-channel'
p33
F30.0
sg4
F0.15049999999999999
sg5
F1.0
sg6
F54.799999999999997
sS'QCD_80-170_EM'
p34
I183722
sS'QCD_250-350_EM'
p35
F556.75
sS'WHToWWW3L_M-125'
p36
F0.01
sS'ggHToZZ4L_M-125'
p37
F0.01
sg7
F5.0899999999999999
sg17
F1666.0
sg8
F100.0
sS'WWZ'
p38
F0.063
sS'ZZ4tau'
p39
F0.076910000000000006
sg9
F32.299999999999997
sg10
F1.28
sS'ttZ'
p40
F0.20799999999999999
sg11
F3532.8000000000002
sS'ZZZ'
p41
F0.0045999999999999999
sg12
F1.0
sS'ttW'
p42
F0.249
sS'ZZ4mu'
p43
F0.076910000000000006
sg14
I31314
sS'QCD_170-250_EM'
p44
I4588
sS'ZZ2mu2tau'
p45
F0.1767
sS'ZZ4e'
p46
F0.076910000000000006
sg15
I234
sS'ttG'
p47
F1.4399999999999999
sg16
F1.0
sS'WZZ'
p48
F0.019199999999999998
sS'ZZJets4L'
p49
F0.092100000000000001
sg18
F159.12
sS'ZZ2e2mu'
p50
F0.1767
sS'QCD_30-80_EM'
p51
F4615893.0
sS'QCD_20-30_EM'
p52
F2920632.0
sg19
F7.7000000000000002
sS't_t-channel'
p53
F55.530000000000001
sg20
F5.9950000000000001
sg21
F1.0860000000000001
sg22
F860.5
sS'ggHToWW2L2Nu_M-125'
p54
F0.01
sg23
F0.36499999999999999
sg24
F0.0074000000000000003
sS'WWW'
p55
F0.082000000000000003
sg25
F3.4620000000000002
sg26
F1.0
sg27
F1666.0
sS'WbbToLNu'
p56
F10000.0
sS'WWG'
p57
F0.52800000000000002
sS'ZZ2e2tau'
p58
F0.1767
sS'QCD_350_EM'
p59
F89.099999999999994
sS'QCD_20_MU'
p60
F84679.0
sg28
F1666.0
sg29
F11.77
ss.(dp0
S'WG'
p1
(I0
I860
I1
I1
g1
tp2
sS'ZZToEE'
p3
(I2
I413
I0
I1
S'ZZ (ee)'
p4
tp5
sS'RATIO'
p6
(I0
I1
I3002
I21
S'Ratio'
p7
tp8
sS'SUM_EFF'
p9
(I1
I600
I3018
I21
S'BG'
p10
tp11
sS'ZZ2mu2tau'
p12
(I2
I805
I1
I1
S'ZZ#rightarrow 2#mu2#tau'
p13
tp14
sS'tbar_t-channel'
p15
(I2
I596
I1
I1
S'#bar{t} (t-channel)'
p16
tp17
sS'fakes'
p18
(I2
I1
I0
I21
g18
tp19
sS'WW'
p20
(I2
I412
I0
I1
g20
tp21
sS'GJets_15to30'
p22
(I2
I402
I0
I1
S'gamma+jets'
p23
tp24
sS'ZZToEMu'
p25
(I2
I414
I0
I1
S'ZZ (e#mu)'
p26
tp27
sS'ggHToZZ4L_M-125'
p28
(I2
I603
I0
I1
S'higgs'
p29
tp30
sS'WZJets2L2Q'
p31
(I3
I597
I0
I1
S'WZ#rightarrow2l2q'
p32
tp33
sS'DYToTauTau'
p34
(I2
I629
I0
I1
S'Z+jets (#tau#tau)'
p35
tp36
sS'ZbbToLL'
p37
(I2
I624
I1
I1
S'Z+bb'
p38
tp39
sS'WWZ'
p40
(I0
I433
I1
I1
g40
tp41
sS'ZZ4tau'
p42
(I2
I808
I1
I1
S'ZZ#rightarrow 4#tau'
p43
tp44
sS'ZZToTauTau'
p45
(I2
I418
I0
I1
S'ZZ (#tau#tau)'
p46
tp47
sS'SIG_EFF'
p48
(I1
I632
I3018
I21
S'Signal'
p49
tp50
sS'ZZJets2L2Q'
p51
(I2
I593
I1
I1
S'ZZ#rightarrow2l2q'
p52
tp53
sS'ttZ'
p54
(I0
I417
I1
I1
S't#bar{t}Z'
p55
tp56
sS'ZJets'
p57
(I0
I632
I1
I1
S'Z+jets (M_{Z/#gamma*} > 50)'
p58
tp59
sS'PhotonJets'
p60
(I2
I632
I0
I1
S'Z+jets (data)'
p61
tp62
sS'ZZZ'
p63
(I0
I435
I1
I1
g63
tp64
sS'DATA_MUEG'
p65
(I2
I922
I0
I21
S'Observed (e#mu)'
p66
tp67
sS'DATA'
p68
(I2
I1
I0
I21
S'Observed'
p69
tp70
sS'top'
p71
(I0
I601
I1
I1
g71
tp72
sS'ttW'
p73
(I0
I418
I1
I1
S't#bar{t}W'
p74
tp75
sS'ZZ4mu'
p76
(I2
I810
I1
I1
S'ZZ#rightarrow 4l'
p77
tp78
sS'WJets'
p79
(I2
I429
I1
I1
S'W+jets'
p80
tp81
sS'ZZToMuTau'
p82
(I2
I414
I0
I1
S'ZZ (#mu#tau)'
p83
tp84
sS'tW'
p85
(I2
I599
I1
I1
g71
tp86
sS'ZZ4e'
p87
(I2
I809
I1
I1
S'ZZ#rightarrow 4e'
p88
tp89
sS'ZJets_M-10To50'
p90
(I0
I634
I1
I1
S'Z+jets (M_{Z/#gamma*} < 50)'
p91
tp92
sS'ttG'
p93
(I0
I419
I1
I1
S't#bar{t}G'
p94
tp95
sS'DATA_MUON'
p96
(I2
I920
I0
I21
S'Observed (#mu#mu)'
p97
tp98
sS'WZZ'
p99
(I0
I434
I1
I1
g99
tp100
sS'ZZJets4L'
p101
(I2
I602
I1
I1
S'ZZ#rightarrow4l'
p102
tp103
sS'ZG'
p104
(I0
I623
I1
I1
S'Z#gamma'
p105
tp106
sS'WZ'
p107
(I2
I909
I0
I1
g107
tp108
sS'WWW'
p109
(I0
I432
I1
I1
g109
tp110
sS'ZZToMuMu'
p111
(I2
I419
I0
I1
S'ZZ#rightarrow 4l '
p112
tp113
sS'ZZ'
p114
(I2
I804
I0
I1
g114
tp115
sS't_t-channel'
p116
(I2
I597
I1
I1
S't (t-channel)'
p117
tp118
sS'WWJets2L2Nu'
p119
(I0
I921
I1
I1
S'WW#rightarrow2l2#nu'
p120
tp121
sS'WZJets3LNu'
p122
(I3
I603
I0
I1
S'WZ#rightarrow3l#nu'
p123
tp124
sS'ttbar'
p125
(I0
I600
I1
I1
S't#bar{t}'
p126
tp127
sS'ZZJets2L2Nu'
p128
(I2
I419
I1
I1
S'ZZ#rightarrow2l2#nu'
p129
tp130
sS'ZZ2e2mu'
p131
(I2
I807
I1
I1
S'ZZ#rightarrow 2e2#mu'
p132
tp133
sS'tbarW'
p134
(I2
I598
I1
I1
S'#bar{t}W'
p135
tp136
sS'ZGToNuNu'
p137
(I2
I603
I0
I1
S'ZG->#nu#nu'
p138
tp139
sS'DATA_ELECTRON'
p140
(I2
I921
I0
I21
S'Observed (ee)'
p141
tp142
sS'DYToEE'
p143
(I2
I632
I0
I1
S'Z+jets (ee)'
p144
tp145
sS'WbbToLNu'
p146
(I2
I430
I1
I1
S'W+bb'
p147
tp148
sS'WWG'
p149
(I0
I436
I1
I1
g149
tp150
sS'ZZ2e2tau'
p151
(I2
I806
I1
I1
S'ZZ#rightarrow 2e2#tau'
p152
tp153
sS'QCD_20_MU'
p154
(I2
I800
I1
I1
S'QCD'
p155
tp156
sS'FCNC_M125_t'
p157
(I3
I903
I2
I22
g49
tp158
sS'DYToMuMu'
p159
(I2
I632
I0
I1
S'Z+jets (#mu#mu)'
p160
tp161
sS'VJets'
p162
(I0
I813
I1
I1
S'V+jets'
p163
tp164
sS'ZZToETau'
p165
(I2
I414
I0
I1
S'ZZ (e#tau)'
p166
tp167
sS'BGERROR'
p168
(I0
I1
I3018
I0
S'BG error'
p169
tp170
s.(dp0
S'tW'
p1
(lp2
S'tbarW'
p3
aS't_t-channel'
p4
aS'tbar_t-channel'
p5
asS'top'
p6
(lp7
S'ttbar'
p8
ag1
ag3
ag4
ag5
asS'FCNC_M125_t'
p9
(lp10
S'FCNC_M125_tbar'
p11
asS'ZZ4mu'
p12
(lp13
S'ZZ4e'
p14
aS'ZZ4tau'
p15
aS'ZZ2e2mu'
p16
aS'ZZ2mu2tau'
p17
aS'ZZ2e2tau'
p18
asS'WW'
p19
(lp20
S'GluGluWW'
p21
asS'ggHToZZ4L_M-125'
p22
(lp23
S'WHToWWW3L_M-125'
p24
asS'QCD_20_MU'
p25
(lp26
S'QCD_20-30_EM'
p27
aS'QCD_30-80_EM'
p28
aS'QCD_80-170_EM'
p29
aS'QCD_170-250_EM'
p30
aS'QCD_250-350_EM'
p31
aS'QCD_350_EM'
p32
asg8
(lp33
g1
ag3
ag4
ag5
asS'ZJets'
p34
(lp35
S'ZJets_M-10To50'
p36
aS'WJets'
p37
asS'DATA'
p38
(lp39
S'DATA_MUON'
p40
aS'DATA_ELECTRON'
p41
aS'DATA_MUEG'
p42
asS'GJets_15to30'
p43
(lp44
S'GJets_30to50'
p45
aS'GJets_50to80'
p46
aS'GJets_80to120'
p47
aS'GJets_120to170'
p48
aS'GJets_170to300'
p49
aS'GJets_300to470'
p50
aS'GJets_470to800'
p51
asS'VJets'
p52
(lp53
g34
ag36
ag37
as.(dp0
S'3l_emumu'
p1
S'e#mu#mu'
p2
sS'ss_mumu'
p3
S'#mu^{#pm}#mu^{#pm}'
p4
sS'3l_SSSF'
p5
S'(l^{#pm}l^{#pm})l'
p6
sS'inclusive'
p7
g7
sS'os_emu'
p8
S'e^{#pm}mu^{#mp}'
p9
sS'3l_eemu'
p10
S'ee#mu'
p11
sS'3l_inclusive'
p12
S'3l inclusive'
p13
sS'ss_emu'
p14
S'e^{#pm}#mu^{#pm}'
p15
sS'3l_eee'
p16
S'eee'
p17
sS'ss_ee'
p18
S'e^{#pm}e^{#pm}'
p19
sS'os_mumu'
p20
S'#mu^{#pm}#mu^{#mp}'
p21
sS'os_inclusive'
p22
S'os inclusive'
p23
sS'3l_OSSF'
p24
S'(l^{#pm}l^{#mp})l'
p25
sS'ss_inclusive'
p26
S'ss inclusive'
p27
sS'os_ee'
p28
S'e^{#pm}e^{#mp}'
p29
sS'3l_mumumu'
p30
S'#mu#mu#mu'
p31
s.