(dp0
S'2011'
p1
(dp2
S'tW'
p3
F7.8700000000000001
sS'GluGluWW'
p4
F0.15049999999999999
sS'fakes'
p5
F1.0
sS'WW'
p6
F4.5099999999999998
sS'WZJets2L2Q'
p7
F1.8329
sS'ZbbToLL'
p8
F304.0
sS'WZ'
p9
F0.59599999999999997
sS'ZZJets2L2Q'
p10
F0.62460000000000004
sS'ZJets'
p11
F3048.0
sS'DATA_MUEG'
p12
F1.0
sS'FCNC_M125_t'
p13
F0.0040000000000000001
sS'WJets'
p14
I31314
sS'ttbar'
p15
I165
sS'DATA_MUON'
p16
F1.0
sS'DYToTauTau'
p17
F1666.0
sS'ZG'
p18
F159.12
sS'ZZ'
p19
F0.214
sS'WWJets2L2Nu'
p20
F4.7830000000000004
sS'WZJets3LNu'
p21
F0.85599999999999998
sS'ZJets_M-10To50'
p22
F742.60000000000002
sS'ZZJets2L2Nu'
p23
F0.1787
sS'FCNC_M125_tbar'
p24
F0.0040000000000000001
sS'ZGToNuNu'
p25
F3.4620000000000002
sS'DATA_ELECTRON'
p26
F1.0
sS'DYToEE'
p27
F1666.0
sS'DYToMuMu'
p28
F1666.0
sS'tbarW'
p29
F7.8700000000000001
ssS'2012'
p30
(dp31
S'WG'
p32
F1000.0
sg13
F0.0074000000000000003
sg3
F11.77
sS'tbar_t-channel'
p33
F30.0
sg4
F0.15049999999999999
sg5
F1.0
sg6
F54.799999999999997
sS'QCD_80-170_EM'
p34
I183722
sS'QCD_250-350_EM'
p35
F556.75
sS'WHToWWW3L_M-125'
p36
F0.01
sS'ggHToZZ4L_M-125'
p37
F0.01
sg7
F5.0899999999999999
sg17
F1666.0
sg8
F100.0
sS'WWZ'
p38
F0.063
sS'ZZ4tau'
p39
F0.076910000000000006
sg9
F32.299999999999997
sg10
F1.28
sS'ttZ'
p40
F0.20799999999999999
sg11
F3532.8000000000002
sS'ZZZ'
p41
F0.0045999999999999999
sg12
F1.0
sS'ttW'
p42
F0.249
sS'ZZ4mu'
p43
F0.076910000000000006
sg14
I31314
sS'QCD_170-250_EM'
p44
I4588
sS'ZZ2mu2tau'
p45
F0.1767
sS'ZZ4e'
p46
F0.076910000000000006
sg15
I234
sS'ttG'
p47
F1.4399999999999999
sg16
F1.0
sS'WZZ'
p48
F0.019199999999999998
sS'ZZJets4L'
p49
F0.092100000000000001
sg18
F159.12
sS'ZZ2e2mu'
p50
F0.1767
sS'QCD_30-80_EM'
p51
F4615893.0
sS'QCD_20-30_EM'
p52
F2920632.0
sg19
F7.7000000000000002
sS't_t-channel'
p53
F55.530000000000001
sg20
F5.9950000000000001
sg21
F1.0860000000000001
sg22
F860.5
sS'ggHToWW2L2Nu_M-125'
p54
F0.01
sg23
F0.36499999999999999
sg24
F0.0074000000000000003
sS'WWW'
p55
F0.082000000000000003
sg25
F3.4620000000000002
sg26
F1.0
sg27
F1666.0
sS'WbbToLNu'
p56
F10000.0
sS'WWG'
p57
F0.52800000000000002
sS'ZZ2e2tau'
p58
F0.1767
sS'QCD_350_EM'
p59
F89.099999999999994
sS'QCD_20_MU'
p60
F84679.0
sg28
F1666.0
sg29
F11.77
ss.(dp0
S'WG'
p1
(I0
I860
I1
I1
g1
tp2
sS'ZZToEE'
p3
(I2
I413
I0
I1
S'ZZ (ee)'
p4
tp5
sS'RATIO'
p6
(I0
I1
I3002
I21
S'Ratio'
p7
tp8
sS'ZZ2mu2tau'
p9
(I2
I805
I1
I1
S'ZZ#rightarrow 2#mu2#tau'
p10
tp11
sS'tbar_t-channel'
p12
(I2
I596
I1
I1
S'#bar{t} (t-channel)'
p13
tp14
sS'tbarW'
p15
(I2
I598
I1
I1
S'#bar{t}W'
p16
tp17
sS'WW'
p18
(I2
I412
I0
I1
g18
tp19
sS'GJets_15to30'
p20
(I2
I402
I0
I1
S'gamma+jets'
p21
tp22
sS'ZZToEMu'
p23
(I2
I414
I0
I1
S'ZZ (e#mu)'
p24
tp25
sS'SUM_EFF'
p26
(I1
I600
I3018
I21
S'BG'
p27
tp28
sS'QCD'
p29
(I2
I800
I1
I1
g29
tp30
sS'WZJets2L2Q'
p31
(I3
I597
I0
I1
S'WZ#rightarrow2l2q'
p32
tp33
sS'DYToTauTau'
p34
(I2
I629
I0
I1
S'Z+jets (#tau#tau)'
p35
tp36
sS'ZbbToLL'
p37
(I2
I624
I1
I1
S'Z+bb'
p38
tp39
sS'WWZ'
p40
(I0
I433
I1
I1
g40
tp41
sS'ZZ4tau'
p42
(I2
I808
I1
I1
S'ZZ#rightarrow 4#tau'
p43
tp44
sS'ZZToTauTau'
p45
(I2
I418
I0
I1
S'ZZ (#tau#tau)'
p46
tp47
sS'SIG_EFF'
p48
(I1
I632
I3018
I21
S'Signal'
p49
tp50
sS'ZZJets2L2Q'
p51
(I2
I593
I1
I1
S'ZZ#rightarrow2l2q'
p52
tp53
sS'ttZ'
p54
(I0
I417
I1
I1
S't#bar{t}Z'
p55
tp56
sS'ZJets'
p57
(I0
I632
I1
I1
S'Z+jets (M_{Z/#gamma*} > 50)'
p58
tp59
sS'PhotonJets'
p60
(I2
I632
I0
I1
S'Z+jets (data)'
p61
tp62
sS'ZZZ'
p63
(I0
I435
I1
I1
g63
tp64
sS'DATA_MUEG'
p65
(I2
I922
I0
I21
S'Observed (e#mu)'
p66
tp67
sS'DATA'
p68
(I2
I1
I0
I21
S'Observed'
p69
tp70
sS'top'
p71
(I0
I601
I1
I1
g71
tp72
sS'ttW'
p73
(I0
I418
I1
I1
S't#bar{t}W'
p74
tp75
sS'ttV'
p76
(I0
I417
I1
I1
S't#bar{t}V'
p77
tp78
sS'ZZ4mu'
p79
(I2
I810
I1
I1
S'ZZ#rightarrow 4l'
p80
tp81
sS'WJets'
p82
(I2
I429
I1
I1
S'W+jets'
p83
tp84
sS'ZZToMuTau'
p85
(I2
I414
I0
I1
S'ZZ (#mu#tau)'
p86
tp87
sS'tW'
p88
(I2
I599
I1
I1
g71
tp89
sS'ZZ4e'
p90
(I2
I809
I1
I1
S'ZZ#rightarrow 4e'
p91
tp92
sS'ZJets_M-10To50'
p93
(I0
I634
I1
I1
S'Z+jets (M_{Z/#gamma*} < 50)'
p94
tp95
sS'FCNH'
p96
(I3
I903
I2
I22
g96
tp97
sS'ttG'
p98
(I0
I419
I1
I1
S't#bar{t}G'
p99
tp100
sS'DATA_MUON'
p101
(I2
I920
I0
I21
S'Observed (#mu#mu)'
p102
tp103
sS'WZZ'
p104
(I0
I434
I1
I1
g104
tp105
sS'ZZJets4L'
p106
(I2
I602
I1
I1
S'ZZ#rightarrow4l'
p107
tp108
sS'ZG'
p109
(I0
I623
I1
I1
S'Z#gamma'
p110
tp111
sS'WZ'
p112
(I2
I909
I0
I1
g112
tp113
sS'WWW'
p114
(I0
I432
I1
I1
g114
tp115
sS'ZZToMuMu'
p116
(I2
I419
I0
I1
S'ZZ#rightarrow 4l '
p117
tp118
sS'ZZ'
p119
(I2
I804
I0
I1
g119
tp120
sS't_t-channel'
p121
(I2
I597
I1
I1
S't (t-channel)'
p122
tp123
sS'WWJets2L2Nu'
p124
(I0
I921
I1
I1
S'WW#rightarrow2l2#nu'
p125
tp126
sS'WZJets3LNu'
p127
(I3
I603
I0
I1
S'WZ#rightarrow3l#nu'
p128
tp129
sS'ttbar'
p130
(I0
I600
I1
I1
S't#bar{t}'
p131
tp132
sS'ZZJets2L2Nu'
p133
(I2
I419
I1
I1
S'ZZ#rightarrow2l2#nu'
p134
tp135
sS'ZZ2e2mu'
p136
(I2
I807
I1
I1
S'ZZ#rightarrow 2e2#mu'
p137
tp138
sS'Diboson'
p139
(I0
I921
I1
I1
g139
tp140
sS'ZGToNuNu'
p141
(I2
I603
I0
I1
S'ZG->#nu#nu'
p142
tp143
sS'higgs'
p144
(I2
I603
I0
I1
g144
tp145
sS'Triboson'
p146
(I0
I432
I1
I1
S'triboson'
p147
tp148
sS'DATA_ELECTRON'
p149
(I2
I921
I0
I21
S'Observed (ee)'
p150
tp151
sS'DYToEE'
p152
(I2
I632
I0
I1
S'Z+jets (ee)'
p153
tp154
sS'WbbToLNu'
p155
(I2
I430
I1
I1
S'W+bb'
p156
tp157
sS'WWG'
p158
(I0
I436
I1
I1
g158
tp159
sS'ZZ2e2tau'
p160
(I2
I806
I1
I1
S'ZZ#rightarrow 2e2#tau'
p161
tp162
sS'fakes'
p163
(I2
I1
I0
I21
g163
tp164
sS'DYToMuMu'
p165
(I2
I632
I0
I1
S'Z+jets (#mu#mu)'
p166
tp167
sS'VJets'
p168
(I0
I813
I1
I1
S'V+jets'
p169
tp170
sS'ZZToETau'
p171
(I2
I414
I0
I1
S'ZZ (e#tau)'
p172
tp173
sS'BGERROR'
p174
(I0
I1
I3018
I0
S'BG error'
p175
tp176
s.(dp0
S'Diboson'
p1
(lp2
S'ZZ4mu'
p3
aS'ZZ4e'
p4
aS'ZZ4tau'
p5
aS'ZZ2e2mu'
p6
aS'ZZ2mu2tau'
p7
aS'ZZ2e2tau'
p8
aS'WZJets3LNu'
p9
aS'WWJets2L2Nu'
p10
aS'ZZJets2L2Nu'
p11
asS'higgs'
p12
(lp13
S'ggHToZZ4L_M-125'
p14
aS'WHToWWW3L_M-125'
p15
asS'top'
p16
(lp17
S'ttbar'
p18
aS'tW'
p19
aS'tbarW'
p20
aS't_t-channel'
p21
aS'tbar_t-channel'
p22
asS'ttV'
p23
(lp24
S'ttZ'
p25
aS'ttW'
p26
aS'ttG'
p27
asS'QCD'
p28
(lp29
S'QCD_20_MU'
p30
aS'QCD_20-30_EM'
p31
aS'QCD_30-80_EM'
p32
aS'QCD_80-170_EM'
p33
aS'QCD_170-250_EM'
p34
aS'QCD_250-350_EM'
p35
aS'QCD_350_EM'
p36
asS'GJets_15to30'
p37
(lp38
S'GJets_30to50'
p39
aS'GJets_50to80'
p40
aS'GJets_80to120'
p41
aS'GJets_120to170'
p42
aS'GJets_170to300'
p43
aS'GJets_300to470'
p44
aS'GJets_470to800'
p45
asS'FCNH'
p46
(lp47
S'FCNC_M125_t'
p48
aS'FCNC_M125_tbar'
p49
asS'DATA'
p50
(lp51
S'DATA_MUON'
p52
aS'DATA_ELECTRON'
p53
aS'DATA_MUEG'
p54
asS'Triboson'
p55
(lp56
S'WWW'
p57
aS'WWZ'
p58
aS'WZZ'
p59
aS'ZZZ'
p60
aS'WWG'
p61
asS'VJets'
p62
(lp63
S'ZJets'
p64
aS'ZJets_M-10To50'
p65
aS'WJets'
p66
as.(dp0
S'3l_emumu'
p1
S'e#mu#mu'
p2
sS'ss_mumu'
p3
S'#mu^{#pm}#mu^{#pm}'
p4
sS'3l_SSSF'
p5
S'(l^{#pm}l^{#pm})l'
p6
sS'inclusive'
p7
g7
sS'os_emu'
p8
S'e^{#pm}mu^{#mp}'
p9
sS'3l_eemu'
p10
S'ee#mu'
p11
sS'3l_inclusive'
p12
S'3l inclusive'
p13
sS'ss_emu'
p14
S'e^{#pm}#mu^{#pm}'
p15
sS'3l_eee'
p16
S'eee'
p17
sS'ss_ee'
p18
S'e^{#pm}e^{#pm}'
p19
sS'os_mumu'
p20
S'#mu^{#pm}#mu^{#mp}'
p21
sS'os_inclusive'
p22
S'os inclusive'
p23
sS'3l_OSSF'
p24
S'(l^{#pm}l^{#mp})l'
p25
sS'ss_inclusive'
p26
S'ss inclusive'
p27
sS'os_ee'
p28
S'e^{#pm}e^{#mp}'
p29
sS'3l_mumumu'
p30
S'#mu#mu#mu'
p31
s.