(dp0
S'2011'
p1
(dp2
S'tW'
p3
F7.8700000000000001
sS'GluGluWW'
p4
F0.15049999999999999
sS'fakes'
p5
F1.0
sS'WW'
p6
F4.5099999999999998
sS'WZJets2L2Q'
p7
F1.8329
sS'ZbbToLL'
p8
F304.0
sS'WZ'
p9
F0.59599999999999997
sS'ZZJets2L2Q'
p10
F0.62460000000000004
sS'ZJets'
p11
F3048.0
sS'DATA_MUEG'
p12
F1.0
sS'FCNC_M125_t'
p13
F0.0040000000000000001
sS'WJets'
p14
I31314
sS'ttbar'
p15
I165
sS'DATA_MUON'
p16
F1.0
sS'DYToTauTau'
p17
F1666.0
sS'ZG'
p18
F159.12
sS'ZZ'
p19
F0.214
sS'WWJets2L2Nu'
p20
F4.7830000000000004
sS'WZJets3LNu'
p21
F0.85599999999999998
sS'ZJets_M-10To50'
p22
F742.60000000000002
sS'ZZJets2L2Nu'
p23
F0.1787
sS'FCNC_M125_tbar'
p24
F0.0040000000000000001
sS'ZGToNuNu'
p25
F3.4620000000000002
sS'DATA_ELECTRON'
p26
F1.0
sS'DYToEE'
p27
F1666.0
sS'DYToMuMu'
p28
F1666.0
sS'tbarW'
p29
F7.8700000000000001
ssS'2012'
p30
(dp31
S'WG'
p32
F1000.0
sg13
F0.0074000000000000003
sg3
F11.77
sS'tbar_t-channel'
p33
F30.699999999999999
sg4
F0.15049999999999999
sg5
F1.0
sg6
F54.799999999999997
sS'QCD_80-170_EM'
p34
I183722
sS'QCD_250-350_EM'
p35
F556.75
sS'WHToWWW3L_M-125'
p36
F0.01
sS'ggHToZZ4L_M-125'
p37
F0.01
sg7
F5.0899999999999999
sg17
F1666.0
sg8
F100.0
sS'WWZ'
p38
F0.063
sS'ZZ4tau'
p39
F0.076910000000000006
sg9
F32.299999999999997
sg10
F1.28
sS'ttZ'
p40
F0.20799999999999999
sg11
F3532.8000000000002
sS'ZZZ'
p41
F0.0045999999999999999
sS'WGStarLNu2Mu'
p42
F1.9139999999999999
sg12
F1.0
sS'ttW'
p43
F0.249
sS'ZZ4mu'
p44
F0.076910000000000006
sg14
I31314
sS'QCD_170-250_EM'
p45
I4588
sS'ZZ2mu2tau'
p46
F0.1767
sS'ZZ4e'
p47
F0.076910000000000006
sg15
F292.5
sS'ttG'
p48
F1.4399999999999999
sg16
F1.0
sS'WZZ'
p49
F0.019199999999999998
sS'ZZJets4L'
p50
F0.092100000000000001
sS'WGStarLNu2E'
p51
F5.8730000000000002
sg18
F159.12
sS'ZZ2e2mu'
p52
F0.1767
sS'QCD_30-80_EM'
p53
F4615893.0
sS'QCD_20-30_EM'
p54
F2920632.0
sg19
F7.7000000000000002
sS't_t-channel'
p55
F55.530000000000001
sg20
F5.9950000000000001
sg21
F1.0860000000000001
sg22
F860.5
sS'ggHToWW2L2Nu_M-125'
p56
F0.01
sg23
F0.36499999999999999
sg24
F0.0074000000000000003
sS'WWW'
p57
F0.082000000000000003
sg25
F3.4620000000000002
sg26
F1.0
sg27
F1666.0
sS'WbbToLNu'
p58
F10000.0
sS'WGStarLNu2Tau'
p59
F0.33600000000000002
sS'WWG'
p60
F0.52800000000000002
sS'ZZ2e2tau'
p61
F0.1767
sS'QCD_350_EM'
p62
F89.099999999999994
sS'QCD_20_MU'
p63
F84679.0
sg28
F1666.0
sg29
F11.77
ss.(dp0
S'WG'
p1
(I0
I859
I1
I1
S'WG*'
p2
tp3
sS'ZZToEE'
p4
(I2
I413
I0
I1
S'ZZ (ee)'
p5
tp6
sS'RATIO'
p7
(I0
I1
I3002
I21
S'Ratio'
p8
tp9
sS'DATA_ELECTRON'
p10
(I2
I921
I0
I21
S'Observed (ee)'
p11
tp12
sS'tbar_t-channel'
p13
(I2
I596
I1
I1
S'#bar{t} (t-channel)'
p14
tp15
sS'QCD'
p16
(I2
I800
I1
I1
g16
tp17
sS'tbarW'
p18
(I2
I598
I1
I1
S'#bar{t}W'
p19
tp20
sS'WW'
p21
(I2
I412
I0
I1
g21
tp22
sS'GJets_15to30'
p23
(I2
I402
I0
I1
S'gamma+jets'
p24
tp25
sS'tW'
p26
(I2
I599
I1
I1
g26
tp27
sS'ZZToEMu'
p28
(I2
I414
I0
I1
S'ZZ (e#mu)'
p29
tp30
sS'SUM_EFF'
p31
(I1
I600
I3018
I21
S'BG'
p32
tp33
sS'single top'
p34
(I0
I601
I1
I1
S't'
p35
tp36
sS'WZJets2L2Q'
p37
(I3
I597
I0
I1
S'WZ#rightarrow2l2q'
p38
tp39
sS'DYToTauTau'
p40
(I2
I629
I0
I1
S'Z+jets (#tau#tau)'
p41
tp42
sS'ZbbToLL'
p43
(I2
I624
I1
I1
S'Z+bb'
p44
tp45
sS'WWZ'
p46
(I0
I433
I1
I1
g46
tp47
sS'DATA'
p48
(I2
I1
I0
I21
S'Observed'
p49
tp50
sS'ZZToTauTau'
p51
(I2
I418
I0
I1
S'ZZ (#tau#tau)'
p52
tp53
sS'SIG_EFF'
p54
(I1
I632
I3018
I21
S'Signal'
p55
tp56
sS'ZZJets2L2Q'
p57
(I2
I593
I1
I1
S'ZZ#rightarrow2l2q'
p58
tp59
sS'ttZ'
p60
(I0
I417
I1
I1
S't#bar{t}Z'
p61
tp62
sS'ZJets'
p63
(I0
I633
I1
I1
S'Z+jets (M_{Z/#gamma*} > 50)'
p64
tp65
sS'PhotonJets'
p66
(I2
I632
I0
I1
S'Z+jets (data)'
p67
tp68
sS'ZZZ'
p69
(I0
I435
I1
I1
g69
tp70
sS'WGStarLNu2Mu'
p71
(I0
I860
I1
I1
S'WG*#ell#nu2#mu'
p72
tp73
sS'DATA_MUEG'
p74
(I2
I922
I0
I21
S'Observed (e#mu)'
p75
tp76
sS'ZZ4tau'
p77
(I2
I808
I1
I1
S'ZZ#rightarrow 4#tau'
p78
tp79
sS'top'
p80
(I0
I601
I1
I1
S't#bar{t}/t'
p81
tp82
sS'ttW'
p83
(I0
I418
I1
I1
S't#bar{t}W'
p84
tp85
sS'ttV'
p86
(I0
I417
I1
I1
S't#bar{t}V'
p87
tp88
sS'ZZ4mu'
p89
(I2
I810
I1
I1
S'ZZ#rightarrow 4l'
p90
tp91
sS'WJets'
p92
(I2
I857
I1
I1
S'W+jets'
p93
tp94
sS'ZZToMuTau'
p95
(I2
I414
I0
I1
S'ZZ (#mu#tau)'
p96
tp97
sS'ZZ2mu2tau'
p98
(I2
I805
I1
I1
S'ZZ#rightarrow 2#mu2#tau'
p99
tp100
sS'ZZ4e'
p101
(I2
I809
I1
I1
S'ZZ#rightarrow 4e'
p102
tp103
sS'ZJets_M-10To50'
p104
(I0
I634
I1
I1
S'Z+jets (M_{Z/#gamma*} < 50)'
p105
tp106
sS'FCNH'
p107
(I3
I903
I2
I22
g107
tp108
sS'ttG'
p109
(I0
I419
I1
I1
S't#bar{t}G'
p110
tp111
sS'DATA_MUON'
p112
(I2
I920
I0
I21
S'Observed (#mu#mu)'
p113
tp114
sS'WZZ'
p115
(I0
I434
I1
I1
g115
tp116
sS'ZZJets4L'
p117
(I2
I602
I1
I1
S'ZZ#rightarrow4l'
p118
tp119
sS'WGStarLNu2E'
p120
(I0
I860
I1
I1
S'WG*#ell#nu2e'
p121
tp122
sS'ZG'
p123
(I0
I623
I1
I1
S'Z#gamma'
p124
tp125
sS'WZ'
p126
(I2
I909
I0
I1
g126
tp127
sS'WWW'
p128
(I0
I432
I1
I1
g128
tp129
sS'ZZToMuMu'
p130
(I2
I419
I0
I1
S'ZZ#rightarrow 4l '
p131
tp132
sS'ZZ'
p133
(I2
I804
I0
I1
g133
tp134
sS't_t-channel'
p135
(I2
I597
I1
I1
S't (t-channel)'
p136
tp137
sS'WWJets2L2Nu'
p138
(I0
I921
I1
I1
S'WW#rightarrow2l2#nu'
p139
tp140
sS'WZJets3LNu'
p141
(I3
I617
I3004
I1
S'WZ#rightarrow3l#nu'
p142
tp143
sS'ttbar'
p144
(I0
I600
I1
I1
S't#bar{t}'
p145
tp146
sS'ZZJets2L2Nu'
p147
(I2
I419
I1
I1
S'ZZ#rightarrow2l2#nu'
p148
tp149
sS'ZZ2e2mu'
p150
(I2
I807
I1
I1
S'ZZ#rightarrow 2e2#mu'
p151
tp152
sS'Diboson'
p153
(I0
I921
I1
I1
S'diboson'
p154
tp155
sS'ZGToNuNu'
p156
(I2
I603
I0
I1
S'ZG->#nu#nu'
p157
tp158
sS'higgs'
p159
(I2
I603
I0
I1
g159
tp160
sS'Triboson'
p161
(I0
I432
I1
I1
S'triboson'
p162
tp163
sS'WW/ZZ'
p164
(I0
I921
I1
I1
g164
tp165
sS'DYToEE'
p166
(I2
I632
I0
I1
S'Z+jets (ee)'
p167
tp168
sS'WbbToLNu'
p169
(I2
I858
I1
I1
S'W+bb'
p170
tp171
sS'WGStarLNu2Tau'
p172
(I0
I860
I1
I1
S'WG*#ell#nu2#tau'
p173
tp174
sS'WWG'
p175
(I0
I436
I1
I1
g175
tp176
sS'ZZ2e2tau'
p177
(I2
I806
I1
I1
S'ZZ#rightarrow 2e2#tau'
p178
tp179
sS'fakes'
p180
(I2
I1
I0
I21
g180
tp181
sS'DYToMuMu'
p182
(I2
I632
I0
I1
S'Z+jets (#mu#mu)'
p183
tp184
sS'VJets'
p185
(I0
I632
I1
I1
S'V+jets'
p186
tp187
sS'ZZToETau'
p188
(I2
I414
I0
I1
S'ZZ (e#tau)'
p189
tp190
sS'BGERROR'
p191
(I0
I1
I3018
I0
S'BG error'
p192
tp193
s.(dp0
S'Diboson'
p1
(lp2
S'ZZ4mu'
p3
aS'ZZ4e'
p4
aS'ZZ4tau'
p5
aS'ZZ2e2mu'
p6
aS'ZZ2mu2tau'
p7
aS'ZZ2e2tau'
p8
aS'WWJets2L2Nu'
p9
aS'ZZJets2L2Nu'
p10
aS'WZJets3LNu'
p11
asS'higgs'
p12
(lp13
S'ggHToZZ4L_M-125'
p14
aS'WHToWWW3L_M-125'
p15
asS'top'
p16
(lp17
S'ttbar'
p18
aS'tW'
p19
aS'tbarW'
p20
aS't_t-channel'
p21
aS'tbar_t-channel'
p22
asS'QCD'
p23
(lp24
S'QCD_20_MU'
p25
aS'QCD_20-30_EM'
p26
aS'QCD_30-80_EM'
p27
aS'QCD_80-170_EM'
p28
aS'QCD_170-250_EM'
p29
aS'QCD_250-350_EM'
p30
aS'QCD_350_EM'
p31
asS'WW/ZZ'
p32
(lp33
g3
ag4
ag5
ag6
ag7
ag8
ag9
ag10
asS'ttV'
p34
(lp35
S'ttZ'
p36
aS'ttW'
p37
aS'ttG'
p38
asS'WGStar'
p39
(lp40
S'WGStarLNu2E'
p41
aS'WGStarLNu2Mu'
p42
aS'WGStarLNu2Tau'
p43
asS'single top'
p44
(lp45
g19
ag20
ag21
ag22
asS'FCNH'
p46
(lp47
S'FCNC_M125_t'
p48
aS'FCNC_M125_tbar'
p49
asS'DATA'
p50
(lp51
S'DATA_MUON'
p52
aS'DATA_ELECTRON'
p53
aS'DATA_MUEG'
p54
asS'Triboson'
p55
(lp56
S'WWW'
p57
aS'WWZ'
p58
aS'WZZ'
p59
aS'ZZZ'
p60
aS'WWG'
p61
asS'VJets'
p62
(lp63
S'ZJets'
p64
aS'ZJets_M-10To50'
p65
aS'WJets'
p66
as.(dp0
S'3l_emumu'
p1
S'e#mu#mu'
p2
sS'ss_mumu'
p3
S'#mu^{#pm}#mu^{#pm}'
p4
sS'3l_SSSF'
p5
S'(l^{#pm}l^{#pm})l'
p6
sS'inclusive'
p7
g7
sS'os_emu'
p8
S'e^{#pm}mu^{#mp}'
p9
sS'3l_eemu'
p10
S'ee#mu'
p11
sS'3l_inclusive'
p12
S'3l inclusive'
p13
sS'ss_emu'
p14
S'e^{#pm}#mu^{#pm}'
p15
sS'3l_eee'
p16
S'eee'
p17
sS'ss_ee'
p18
S'e^{#pm}e^{#pm}'
p19
sS'os_mumu'
p20
S'#mu^{#pm}#mu^{#mp}'
p21
sS'os_inclusive'
p22
S'os inclusive'
p23
sS'3l_OSSF'
p24
S'(l^{#pm}l^{#mp})l'
p25
sS'ss_inclusive'
p26
S'ss inclusive'
p27
sS'os_ee'
p28
S'e^{#pm}e^{#mp}'
p29
sS'3l_mumumu'
p30
S'#mu#mu#mu'
p31
s.