(dp0
S'2011'
p1
(dp2
S'tW'
p3
F7.8700000000000001
sS'GluGluWW'
p4
F0.15049999999999999
sS'fakes'
p5
F1.0
sS'WW'
p6
F4.5099999999999998
sS'WZJets2L2Q'
p7
F1.8329
sS'ZbbToLL'
p8
F304.0
sS'WZ'
p9
F0.59599999999999997
sS'ZZJets2L2Q'
p10
F0.62460000000000004
sS'ZJets_M-50'
p11
F3048.0
sS'DATA_MUEG'
p12
F1.0
sS'FCNC_M125_t'
p13
F0.0040000000000000001
sS'WJets'
p14
I31314
sS'ttbar'
p15
I165
sS'DATA_MUON'
p16
F1.0
sS'DYToTauTau'
p17
F1666.0
sS'ZG'
p18
F159.12
sS'ZZ'
p19
F0.214
sS'WWJets2L2Nu'
p20
F4.7830000000000004
sS'WZJets3LNu'
p21
F0.85599999999999998
sS'ZJets_M-10To50'
p22
F742.60000000000002
sS'ZZJets2L2Nu'
p23
F0.1787
sS'FCNC_M125_tbar'
p24
F0.0040000000000000001
sS'ZGToNuNu'
p25
F3.4620000000000002
sS'DATA_ELECTRON'
p26
F1.0
sS'DYToEE'
p27
F1666.0
sS'DYToMuMu'
p28
F1666.0
sS'tbarW'
p29
F7.8700000000000001
ssS'2012'
p30
(dp31
S'WG'
p32
F1000.0
sg13
F0.027167399999999994
sg3
F11.77
sS'tbar_t-channel'
p33
F30.699999999999999
sg4
F0.15049999999999999
sg5
F1.0
sg6
F54.799999999999997
sS'QCD_80-170_EM'
p34
I183722
sS'QCD_250-350_EM'
p35
F556.75
sS'WHToWWW3L_M-125'
p36
F0.019034999999999996
sS'ggHToZZ4L_M-125'
p37
F0.0041271119999999996
sg7
F5.0899999999999999
sg17
F1666.0
sg8
F94.099999999999994
sS'WWZ'
p38
F0.063
sS'ZZ4tau'
p39
F0.076910000000000006
sg9
F32.299999999999997
sg10
F1.28
sS'ttZ'
p40
F0.20799999999999999
sS'ZZZ'
p41
F0.0045999999999999999
sg11
F3532.8000000000002
sS'WGStarLNu2Mu'
p42
F1.9139999999999999
sg12
F1.0
sS'ttW'
p43
F0.249
sS'ZZ4mu'
p44
F0.076910000000000006
sg14
I31314
sS'TTH_M-125'
p45
F0.1032
sS'QCD_170-250_EM'
p46
I4588
sS'ZZ2mu2tau'
p47
F0.1767
sS'ZZ4e'
p48
F0.076910000000000006
sg15
I234
sS'ZGstar'
p49
F0.5
sS'ttG'
p50
F1.4399999999999999
sg16
F1.0
sS'WZZ'
p51
F0.019199999999999998
sS'ZZJets4L'
p52
F0.092100000000000001
sS'WGStarLNu2E'
p53
F5.8730000000000002
sg18
F159.12
sS'ZZ2e2mu'
p54
F0.1767
sS'QCD_30-80_EM'
p55
F4615893.0
sS'QCD_20-30_EM'
p56
F2920632.0
sg19
F7.7000000000000002
sS't_t-channel'
p57
F55.530000000000001
sg20
F5.9950000000000001
sg21
F1.0860000000000001
sg22
F860.5
sS'ggHToWW2L2Nu_M-125'
p58
F0.37345499999999993
sg23
F0.36499999999999999
sg24
F0.027167399999999994
sS'WWW'
p59
F0.082000000000000003
sg25
F3.4620000000000002
sg26
F1.0
sg27
F1666.0
sS'WbbToLNu'
p60
F39.899999999999999
sS'WGStarLNu2Tau'
p61
F0.33600000000000002
sS'WWG'
p62
F0.52800000000000002
sS'ZZ2e2tau'
p63
F0.1767
sS'QCD_350_EM'
p64
F89.099999999999994
sS'QCD_20_MU'
p65
F84679.0
sg28
F1666.0
sg29
F11.77
ss.(dp0
S'WG'
p1
(I0
I859
I1
I1
S'WG*'
p2
tp3
sS'ZZToEE'
p4
(I2
I413
I0
I1
S'ZZ (ee)'
p5
tp6
sS'RATIO'
p7
(I0
I1
I3002
I21
S'Ratio'
p8
tp9
sS'DATA_ELECTRON'
p10
(I2
I921
I0
I21
S'Observed (ee)'
p11
tp12
sS'tbar_t-channel'
p13
(I2
I596
I1
I1
S'#bar{t} (t-channel)'
p14
tp15
sS'QCD'
p16
(I2
I800
I1
I1
g16
tp17
sS'tbarW'
p18
(I2
I598
I1
I1
S'#bar{t}W'
p19
tp20
sS'WW'
p21
(I2
I412
I0
I1
g21
tp22
sS'GJets_15to30'
p23
(I2
I402
I0
I1
S'gamma+jets'
p24
tp25
sS'tW'
p26
(I2
I599
I1
I1
g26
tp27
sS'ZZToEMu'
p28
(I2
I414
I0
I1
S'ZZ (e#mu)'
p29
tp30
sS'SUM_EFF'
p31
(I1
I600
I3018
I21
S'BG'
p32
tp33
sS'single top'
p34
(I0
I602
I3004
I1
S't'
p35
tp36
sS'WZJets2L2Q'
p37
(I3
I597
I0
I1
S'WZ#rightarrow2l2q'
p38
tp39
sS'DYToTauTau'
p40
(I2
I629
I0
I1
S'Z+jets (#tau#tau)'
p41
tp42
sS'ZbbToLL'
p43
(I2
I624
I1
I1
S'Z+bb'
p44
tp45
sS'WWZ'
p46
(I0
I433
I1
I1
g46
tp47
sS'DATA'
p48
(I2
I1
I0
I21
S'Observed'
p49
tp50
sS'ZZToTauTau'
p51
(I2
I418
I0
I1
S'ZZ (#tau#tau)'
p52
tp53
sS'SIG_EFF'
p54
(I1
I632
I3018
I21
S'Signal'
p55
tp56
sS'ZZJets2L2Q'
p57
(I2
I593
I1
I1
S'ZZ#rightarrow2l2q'
p58
tp59
sS'ttZ'
p60
(I0
I417
I1
I1
S't#bar{t}Z'
p61
tp62
sS'WZJets3LNu'
p63
(I3
I617
I3004
I1
S'WZ#rightarrow3l#nu'
p64
tp65
sS'PhotonJets'
p66
(I2
I632
I0
I1
S'Z+jets (data)'
p67
tp68
sS'ZZZ'
p69
(I0
I435
I1
I1
g69
tp70
sS'ZJets_M-50'
p71
(I0
I633
I1
I1
S'Z+jets (M_{Z/#gamma*} > 50)'
p72
tp73
sS'WGStarLNu2Mu'
p74
(I0
I860
I1
I1
S'WG*#ell#nu2#mu'
p75
tp76
sS'DATA_MUEG'
p77
(I2
I922
I0
I21
S'Observed (e#mu)'
p78
tp79
sS'ZZ4tau'
p80
(I2
I808
I1
I1
S'ZZ#rightarrow 4#tau'
p81
tp82
sS'top'
p83
(I0
I601
I1
I1
S't#bar{t}/t'
p84
tp85
sS'ttW'
p86
(I0
I418
I1
I1
S't#bar{t}W'
p87
tp88
sS'ttV'
p89
(I0
I417
I1
I1
S't#bar{t}V'
p90
tp91
sS'ZZ4mu'
p92
(I2
I810
I1
I1
S'ZZ#rightarrow 4l'
p93
tp94
sS'ZZ4l'
p95
(I0
I921
I1
I1
S'ZZ#rightarrow4l'
p96
tp97
sS'WJets'
p98
(I2
I857
I1
I1
S'W+jets'
p99
tp100
sS'ZZToMuTau'
p101
(I2
I414
I0
I1
S'ZZ (#mu#tau)'
p102
tp103
sS'ZZ2mu2tau'
p104
(I2
I805
I1
I1
S'ZZ#rightarrow 2#mu2#tau'
p105
tp106
sS'ZZ4e'
p107
(I2
I809
I1
I1
S'ZZ#rightarrow 4e'
p108
tp109
sS'ZJets_M-10To50'
p110
(I0
I634
I1
I1
S'Z+jets (M_{Z/#gamma*} < 50)'
p111
tp112
sS'ZGstar'
p113
(I2
I603
I0
I1
S'Z#gamma^{*}'
p114
tp115
sS'ttG'
p116
(I0
I419
I1
I1
S't#bar{t}G'
p117
tp118
sS'DATA_MUON'
p119
(I2
I920
I0
I21
S'Observed (#mu#mu)'
p120
tp121
sS'WZZ'
p122
(I0
I434
I1
I1
g122
tp123
sS'ZZJets4L'
p124
(I2
I602
I1
I1
g96
tp125
sS'WGStarLNu2E'
p126
(I0
I860
I1
I1
S'WG*#ell#nu2e'
p127
tp128
sS'ZG'
p129
(I0
I623
I1
I1
S'Z#gamma'
p130
tp131
sS'WZ'
p132
(I2
I909
I0
I1
g132
tp133
sS'WWW'
p134
(I0
I432
I1
I1
g134
tp135
sS'ZZToMuMu'
p136
(I2
I419
I0
I1
S'ZZ#rightarrow 4l '
p137
tp138
sS'FCNH'
p139
(I3
I903
I2
I22
g139
tp140
sS'ZZ'
p141
(I2
I804
I0
I1
g141
tp142
sS't_t-channel'
p143
(I2
I597
I1
I1
S't (t-channel)'
p144
tp145
sS'WWJets2L2Nu'
p146
(I0
I921
I1
I1
S'WW#rightarrow2l2#nu'
p147
tp148
sS'ZJets'
p149
(I0
I632
I1
I1
S'Z+jets'
p150
tp151
sS'ttbar'
p152
(I0
I600
I1
I1
S't#bar{t}'
p153
tp154
sS'ZZJets2L2Nu'
p155
(I2
I419
I1
I1
S'ZZ#rightarrow2l2#nu'
p156
tp157
sS'ZZ2e2mu'
p158
(I2
I807
I1
I1
S'ZZ#rightarrow 2e2#mu'
p159
tp160
sS'Diboson'
p161
(I0
I921
I1
I1
S'diboson'
p162
tp163
sS'ZGToNuNu'
p164
(I2
I603
I0
I1
S'ZG->#nu#nu'
p165
tp166
sS'higgs'
p167
(I2
I603
I0
I1
g167
tp168
sS'Triboson'
p169
(I0
I432
I1
I1
S'triboson'
p170
tp171
sS'WW/ZZ'
p172
(I0
I921
I1
I1
g172
tp173
sS'DYToEE'
p174
(I2
I632
I0
I1
S'Z+jets (ee)'
p175
tp176
sS'WbbToLNu'
p177
(I2
I858
I1
I1
S'W+bb'
p178
tp179
sS'WGStarLNu2Tau'
p180
(I0
I860
I1
I1
S'WG*#ell#nu2#tau'
p181
tp182
sS'WWG'
p183
(I0
I436
I1
I1
g183
tp184
sS'ZZ2e2tau'
p185
(I2
I806
I1
I1
S'ZZ#rightarrow 2e2#tau'
p186
tp187
sS'fakes'
p188
(I2
I1
I0
I21
g188
tp189
sS'DYToMuMu'
p190
(I2
I632
I0
I1
S'Z+jets (#mu#mu)'
p191
tp192
sS'VJets'
p193
(I0
I632
I1
I1
S'V+jets'
p194
tp195
sS'ZZToETau'
p196
(I2
I414
I0
I1
S'ZZ (e#tau)'
p197
tp198
sS'BGERROR'
p199
(I0
I1
I3018
I0
S'BG error'
p200
tp201
s.(dp0
S'FCNH'
p1
(lp2
S'FCNC_M125_t'
p3
aS'FCNC_M125_tbar'
p4
asS'higgs'
p5
(lp6
S'ggHToZZ4L_M-125'
p7
aS'WHToWWW3L_M-125'
p8
aS'ggHToWW2L2Nu_M-125'
p9
aS'TTH_M-125'
p10
asS'top'
p11
(lp12
S'ttbar'
p13
aS'tW'
p14
aS'tbarW'
p15
aS't_t-channel'
p16
aS'tbar_t-channel'
p17
asS'QCD'
p18
(lp19
S'QCD_20_MU'
p20
aS'QCD_20-30_EM'
p21
aS'QCD_30-80_EM'
p22
aS'QCD_80-170_EM'
p23
aS'QCD_170-250_EM'
p24
aS'QCD_250-350_EM'
p25
aS'QCD_350_EM'
p26
asS'WW/ZZ'
p27
(lp28
S'ZZ4mu'
p29
aS'ZZ4e'
p30
aS'ZZ4tau'
p31
aS'ZZ2e2mu'
p32
aS'ZZ2mu2tau'
p33
aS'ZZ2e2tau'
p34
aS'WWJets2L2Nu'
p35
aS'ZZJets2L2Nu'
p36
asS'ttV'
p37
(lp38
S'ttZ'
p39
aS'ttW'
p40
aS'ttG'
p41
asS'ZZ4l'
p42
(lp43
g29
ag30
ag31
ag32
ag33
ag34
asS'Diboson'
p44
(lp45
g29
ag30
ag31
ag32
ag33
ag34
ag35
ag36
aS'WZJets3LNu'
p46
asS'WGStar'
p47
(lp48
S'WGStarLNu2E'
p49
aS'WGStarLNu2Mu'
p50
aS'WGStarLNu2Tau'
p51
asS'single top'
p52
(lp53
g14
ag15
ag16
ag17
asS'ZJets'
p54
(lp55
S'ZJets_M-50'
p56
aS'ZJets_M-10To50'
p57
asS'DATA'
p58
(lp59
S'DATA_MUON'
p60
aS'DATA_ELECTRON'
p61
aS'DATA_MUEG'
p62
asS'Triboson'
p63
(lp64
S'WWW'
p65
aS'WWZ'
p66
aS'WZZ'
p67
aS'ZZZ'
p68
aS'WWG'
p69
asS'VJets'
p70
(lp71
g56
ag57
aS'WJets'
p72
as.(dp0
S'3l_emumu'
p1
S'e#mu#mu'
p2
sS'ss_mumu'
p3
S'#mu^{#pm}#mu^{#pm}'
p4
sS'3l_SSSF'
p5
S'(l^{#pm}l^{#pm})l'
p6
sS'inclusive'
p7
g7
sS'os_emu'
p8
S'e^{#pm}mu^{#mp}'
p9
sS'3l_eemu'
p10
S'ee#mu'
p11
sS'3l_inclusive'
p12
S'3l inclusive'
p13
sS'ss_emu'
p14
S'e^{#pm}#mu^{#pm}'
p15
sS'3l_eee'
p16
S'eee'
p17
sS'ss_ee'
p18
S'e^{#pm}e^{#pm}'
p19
sS'os_mumu'
p20
S'#mu^{#pm}#mu^{#mp}'
p21
sS'os_inclusive'
p22
S'os inclusive'
p23
sS'3l_OSSF'
p24
S'(l^{#pm}l^{#mp})l'
p25
sS'ss_inclusive'
p26
S'ss inclusive'
p27
sS'os_ee'
p28
S'e^{#pm}e^{#mp}'
p29
sS'3l_mumumu'
p30
S'#mu#mu#mu'
p31
s.