(dp0
S'2011'
p1
(dp2
S'tW'
p3
F7.8700000000000001
sS'GluGluWW'
p4
F0.15049999999999999
sS'WW'
p5
F4.5099999999999998
sS'QFlips'
p6
F1.0
sS'WZJets2L2Q'
p7
F1.8329
sS'ZbbToLL'
p8
F304.0
sS'WZ'
p9
F0.59599999999999997
sS'ZZJets2L2Q'
p10
F0.62460000000000004
sS'ZJets_M-50'
p11
F3048.0
sS'DATA_MUEG'
p12
F1.0
sS'FCNC_M125_t'
p13
F0.0040000000000000001
sS'WJets'
p14
I31314
sS'ttbar'
p15
I165
sS'DATA_MUON'
p16
F1.0
sS'DYToTauTau'
p17
F1666.0
sS'ZG'
p18
F159.12
sS'ZZ'
p19
F0.214
sS'WWJets2L2Nu'
p20
F4.7830000000000004
sS'WZJets3LNu'
p21
F0.85599999999999998
sS'ZJets_M-10To50'
p22
F742.60000000000002
sS'ZZJets2L2Nu'
p23
F0.1787
sS'FCNC_M125_tbar'
p24
F0.0040000000000000001
sS'ZGToNuNu'
p25
F3.4620000000000002
sS'DATA_ELECTRON'
p26
F1.0
sS'DYToEE'
p27
F1666.0
sS'Fakes'
p28
F1.0
sS'DYToMuMu'
p29
F1666.0
sS'tbarW'
p30
F7.8700000000000001
ssS'2012'
p31
(dp32
S'WG'
p33
F1000.0
sg13
F0.018427822963199999
sS'FCNC_M125_t_TauTau'
p34
F0.10287648000000001
sg3
F11.77
sS'tbar_t-channel'
p35
F30.699999999999999
sg4
F0.15049999999999999
sg5
F54.799999999999997
sS'QCD_80-170_EM'
p36
I183722
sS'QCD_250-350_EM'
p37
F556.75
sS'WHToWWW3L_M-125'
p38
F0.019034999999999996
sg6
F1.0
sS'ggHToZZ4L_M-125'
p39
F0.0041271119999999996
sg7
F5.0899999999999999
sg17
F1666.0
sg8
F94.099999999999994
sS'WWZ'
p40
F0.063
sS'ZZ4tau'
p41
F0.076910000000000006
sg9
F32.299999999999997
sg10
F1.28
sS'ttZ'
p42
F0.20799999999999999
sS'ZZZ'
p43
F0.0045999999999999999
sg11
F3532.8000000000002
sS'WGStarLNu2Mu'
p44
F1.9139999999999999
sS'FCNC_M125_t_semilep'
p45
F0.23068904302080004
sS'ttW'
p46
F0.249
sS'ZZ4mu'
p47
F0.076910000000000006
sg28
F1.0
sg14
I31314
sS'TTH_M-125'
p48
F0.1032
sS'QCD_170-250_EM'
p49
I4588
sS'ZZ2mu2tau'
p50
F0.1767
sS'ZZ4e'
p51
F0.076910000000000006
sg15
F244.76400000000001
sS'ZGstar'
p52
F0.5
sS'ttG'
p53
F1.4399999999999999
sg16
F1.0
sS'WZZ'
p54
F0.019199999999999998
sS'ZZJets4L'
p55
F0.092100000000000001
sS'WGStarLNu2E'
p56
F5.8730000000000002
sg18
F159.12
sS'ZZ2e2mu'
p57
F0.1767
sS'QCD_30-80_EM'
p58
F4615893.0
sS'QCD_20-30_EM'
p59
F2920632.0
sg19
F7.7000000000000002
sS't_t-channel'
p60
F55.530000000000001
sg20
F5.9950000000000001
sg21
F1.0860000000000001
sg22
F860.5
sS'ggHToWW2L2Nu_M-125'
p61
F0.37345499999999993
sg23
F0.36499999999999999
sg24
F0.018427822963199999
sS'WWW'
p62
F0.082000000000000003
sg25
F3.4620000000000002
sg26
F1.0
sg27
F1666.0
sS'WbbToLNu'
p63
F39.899999999999999
sS'WGStarLNu2Tau'
p64
F0.33600000000000002
sg12
F1.0
sS'WWG'
p65
F0.52800000000000002
sS'ZZ2e2tau'
p66
F0.1767
sS'QCD_350_EM'
p67
F89.099999999999994
sS'QCD_20_MU'
p68
F84679.0
sS'FCNC_M125_t_ZZ'
p69
F0.0081909273600000009
sg29
F1666.0
sg30
F11.77
ss.(dp0
S'WG'
p1
(I0
I859
I1
I1
S'WG*'
p2
tp3
sS'ZZToEE'
p4
(I2
I413
I0
I1
S'ZZ (ee)'
p5
tp6
sS'RATIO'
p7
(I0
I1
I3002
I21
S'Ratio'
p8
tp9
sS'WW/ZZ'
p10
(I0
I921
I1
I1
g10
tp11
sS'tbar_t-channel'
p12
(I2
I596
I1
I1
S'#bar{t} (t-channel)'
p13
tp14
sS'QCD'
p15
(I2
I800
I1
I1
g15
tp16
sS'PROMPT_2l'
p17
(I2
I632
I3001
I21
S'Prompt'
p18
tp19
sS'tbarW'
p20
(I2
I598
I1
I1
S'#bar{t}W'
p21
tp22
sS'WW'
p23
(I2
I412
I0
I1
g23
tp24
sS'GJets_15to30'
p25
(I2
I402
I0
I1
S'gamma+jets'
p26
tp27
sS'tW'
p28
(I2
I599
I1
I1
g28
tp29
sS'ZZToEMu'
p30
(I2
I414
I0
I1
S'ZZ (e#mu)'
p31
tp32
sS'SUM_EFF'
p33
(I1
I600
I3018
I21
S'BG'
p34
tp35
sS'single top'
p36
(I0
I602
I3004
I1
S't'
p37
tp38
sS'WZJets2L2Q'
p39
(I3
I597
I0
I1
S'WZ#rightarrow2l2q'
p40
tp41
sS'DYToTauTau'
p42
(I2
I629
I0
I1
S'Z+jets (#tau#tau)'
p43
tp44
sS'ZbbToLL'
p45
(I2
I624
I1
I1
S'Z+bb'
p46
tp47
sS'WWZ'
p48
(I0
I433
I1
I1
g48
tp49
sS'DATA'
p50
(I2
I1
I0
I21
S'Observed'
p51
tp52
sS'ZZToTauTau'
p53
(I2
I418
I0
I1
S'ZZ (#tau#tau)'
p54
tp55
sS'SIG_EFF'
p56
(I1
I632
I3018
I21
S'Signal'
p57
tp58
sS'ZZJets2L2Q'
p59
(I2
I593
I1
I1
S'ZZ#rightarrow2l2q'
p60
tp61
sS'ttZ'
p62
(I0
I417
I1
I1
S't#bar{t}Z'
p63
tp64
sS'FAKEABLE'
p65
(I2
I600
I0
I21
S'Fakeable'
p66
tp67
sS'PhotonJets'
p68
(I2
I632
I0
I1
S'Z+jets (data)'
p69
tp70
sS'ZZZ'
p71
(I0
I435
I1
I1
g71
tp72
sS'ZJets_M-50'
p73
(I0
I633
I1
I1
S'Z+jets (M_{Z/#gamma*} > 50)'
p74
tp75
sS'WGStarLNu2Mu'
p76
(I0
I860
I1
I1
S'WG*#ell#nu2#mu'
p77
tp78
sS'DATA_MUEG'
p79
(I2
I922
I0
I21
S'Observed (e#mu)'
p80
tp81
sS'ZZ4tau'
p82
(I2
I808
I1
I1
S'ZZ#rightarrow 4#tau'
p83
tp84
sS'top'
p85
(I0
I601
I1
I1
S't#bar{t}/t'
p86
tp87
sS'ttW'
p88
(I0
I418
I1
I1
S't#bar{t}W'
p89
tp90
sS'ttV'
p91
(I0
I417
I1
I1
S't#bar{t}V'
p92
tp93
sS'ZZ4mu'
p94
(I2
I810
I1
I1
S'ZZ#rightarrow 4l'
p95
tp96
sS'ZZ4l'
p97
(I0
I921
I1
I1
S'ZZ#rightarrow4l'
p98
tp99
sS'WWW'
p100
(I0
I432
I1
I1
g100
tp101
sS'WJets'
p102
(I2
I857
I1
I1
S'W+jets'
p103
tp104
sS'Fakes'
p105
(I2
I1
I3001
I1
g105
tp106
sS'ZZToMuTau'
p107
(I2
I414
I0
I1
S'ZZ (#mu#tau)'
p108
tp109
sS'Irreducible'
p110
(I2
I600
I0
I21
g110
tp111
sS'ZZ4e'
p112
(I2
I809
I1
I1
S'ZZ#rightarrow 4e'
p113
tp114
sS'ZJets_M-10To50'
p115
(I0
I634
I1
I1
S'Z+jets (M_{Z/#gamma*} < 50)'
p116
tp117
sS'ZGstar'
p118
(I2
I603
I0
I1
S'Z#gamma^{*}'
p119
tp120
sS'ttG'
p121
(I0
I419
I1
I1
S't#bar{t}G'
p122
tp123
sS'VJets'
p124
(I0
I632
I1
I1
S'V+jets'
p125
tp126
sS'WZZ'
p127
(I0
I434
I1
I1
g127
tp128
sS'ZZJets4L'
p129
(I2
I602
I1
I1
g98
tp130
sS'WGStarLNu2E'
p131
(I0
I860
I1
I1
S'WG*#ell#nu2e'
p132
tp133
sS'ZG'
p134
(I0
I623
I1
I1
S'Z#gamma'
p135
tp136
sS'WZ'
p137
(I2
I909
I0
I1
g137
tp138
sS'PROMPT_3l'
p139
(I2
I632
I3001
I21
g18
tp140
sS'QCD_EM'
p141
(I2
I801
I1
I1
S'QCD e#gamma'
p142
tp143
sS'ZZToMuMu'
p144
(I2
I419
I0
I1
S'ZZ#rightarrow 4l '
p145
tp146
sS'FCNH'
p147
(I3
I903
I2
I22
g147
tp148
sS'ZZ'
p149
(I2
I804
I0
I1
g149
tp150
sS'PASS'
p151
(I2
I1
I0
I23
S'Pass'
p152
tp153
sS't_t-channel'
p154
(I2
I597
I1
I1
S't (t-channel)'
p155
tp156
sS'WWJets2L2Nu'
p157
(I0
I921
I1
I1
S'WW#rightarrow2l2#nu'
p158
tp159
sS'ZJets'
p160
(I0
I632
I1
I1
S'Z+jets'
p161
tp162
sS'ttbar'
p163
(I0
I600
I1
I1
S't#bar{t}'
p164
tp165
sS'FAKES_3l'
p166
(I2
I600
I3001
I1
g18
tp167
sS'ZZJets2L2Nu'
p168
(I2
I419
I1
I1
S'ZZ#rightarrow2l2#nu'
p169
tp170
sS'WZJets3LNu'
p171
(I3
I617
I3004
I1
S'WZ#rightarrow3l#nu'
p172
tp173
sS'Diboson'
p174
(I0
I921
I1
I1
S'diboson'
p175
tp176
sS'ZGToNuNu'
p177
(I2
I603
I0
I1
S'ZG->#nu#nu'
p178
tp179
sS'higgs'
p180
(I2
I603
I0
I1
g180
tp181
sS'ZZ2e2mu'
p182
(I2
I807
I1
I1
S'ZZ#rightarrow 2e2#mu'
p183
tp184
sS'Triboson'
p185
(I0
I432
I1
I1
S'triboson'
p186
tp187
sS'DATA_ELECTRON'
p188
(I2
I921
I0
I21
S'Observed (ee)'
p189
tp190
sS'DATA_FAKES'
p191
(I2
I1
I3001
I21
S'Data'
p192
tp193
sS'DYToEE'
p194
(I2
I632
I0
I1
S'Z+jets (ee)'
p195
tp196
sS'WbbToLNu'
p197
(I2
I858
I1
I1
S'W+bb'
p198
tp199
sS'WGStarLNu2Tau'
p200
(I0
I860
I1
I1
S'WG*#ell#nu2#tau'
p201
tp202
sS'WWG'
p203
(I0
I436
I1
I1
g203
tp204
sS'ZZ2e2tau'
p205
(I2
I806
I1
I1
S'ZZ#rightarrow 2e2#tau'
p206
tp207
sS'ZZ2mu2tau'
p208
(I2
I805
I1
I1
S'ZZ#rightarrow 2#mu2#tau'
p209
tp210
sS'QCD_20_MU'
p211
(I2
I799
I1
I1
S'QCD #mu'
p212
tp213
sS'FAKES_2l'
p214
(I2
I632
I3001
I1
g18
tp215
sS'DYToMuMu'
p216
(I2
I632
I0
I1
S'Z+jets (#mu#mu)'
p217
tp218
sS'DATA_MUON'
p219
(I2
I920
I0
I21
S'Observed (#mu#mu)'
p220
tp221
sS'ZZToETau'
p222
(I2
I414
I0
I1
S'ZZ (e#tau)'
p223
tp224
sS'BGERROR'
p225
(I0
I1
I3018
I0
S'BG error'
p226
tp227
sS'QFlips'
p228
(I2
I602
I3001
I1
g228
tp229
s.(dp0
S'Remove_ss'
p1
(lp2
S'ZJets_M-50'
p3
aS'ZJets_M-10To50'
p4
asS'FAKES_2l'
p5
(lp6
S'WbbToLNu'
p7
ag3
ag4
aS'ttbar'
p8
aS'tbarW'
p9
aS'tW'
p10
aS'WWJets2L2Nu'
p11
aS'ZZJets2L2Nu'
p12
aS'ZZJets2L2Q'
p13
asS'PROMPT_2l'
p14
g6
sS'FAKES_3l'
p15
(lp16
S'WZJets3LNu'
p17
asS'QCD'
p18
(lp19
S'QCD_20_MU'
p20
aS'QCD_20-30_EM'
p21
aS'QCD_30-80_EM'
p22
aS'QCD_80-170_EM'
p23
aS'QCD_170-250_EM'
p24
aS'QCD_250-350_EM'
p25
aS'QCD_350_EM'
p26
asS'PASS'
p27
(lp28
S'DATA_MUON'
p29
aS'DATA_ELECTRON'
p30
aS'DATA_MUEG'
p31
asS'DATA'
p32
g28
sS'FAKEABLE'
p33
g28
sS'top'
p34
(lp35
g8
ag10
ag9
aS't_t-channel'
p36
aS'tbar_t-channel'
p37
asS'ttV'
p38
(lp39
S'ttZ'
p40
aS'ttW'
p41
aS'ttG'
p42
asS'ZZ4l'
p43
(lp44
S'ZZ4mu'
p45
aS'ZZ4e'
p46
aS'ZZ4tau'
p47
aS'ZZ2e2mu'
p48
aS'ZZ2mu2tau'
p49
aS'ZZ2e2tau'
p50
asS'WGStar'
p51
(lp52
S'WGStarLNu2E'
p53
aS'WGStarLNu2Mu'
p54
aS'WGStarLNu2Tau'
p55
asS'FCNH'
p56
(lp57
S'FCNC_M125_t'
p58
aS'FCNC_M125_tbar'
p59
aS'FCNC_M125_t_semilep'
p60
aS'FCNC_M125_t_ZZ'
p61
aS'FCNC_M125_t_TauTau'
p62
asS'VJets'
p63
(lp64
g3
ag4
aS'WJets'
p65
asS'Irreducible'
p66
(lp67
S'ggHToZZ4L_M-125'
p68
aS'WHToWWW3L_M-125'
p69
aS'ggHToWW2L2Nu_M-125'
p70
aS'TTH_M-125'
p71
ag45
ag46
ag47
ag48
ag49
ag50
ag40
ag41
ag42
aS'WWW'
p72
aS'WWZ'
p73
aS'WZZ'
p74
aS'ZZZ'
p75
aS'WWG'
p76
ag17
asS'PROMPT_3l'
p77
g16
sS'QCD_EM'
p78
(lp79
g21
ag22
ag23
ag24
ag25
ag26
asS'Remove_3l'
p80
(lp81
g17
ag45
ag46
ag47
ag48
ag49
ag50
asS'ZJets'
p82
(lp83
g3
ag4
asS'Diboson'
p84
(lp85
g45
ag46
ag47
ag48
ag49
ag50
ag11
ag12
ag17
asS'higgs'
p86
(lp87
g68
ag69
ag70
ag71
asS'Triboson'
p88
(lp89
g72
ag73
ag74
ag75
ag76
asS'WW/ZZ'
p90
(lp91
g45
ag46
ag47
ag48
ag49
ag50
ag11
ag12
asS'DATA_FAKES'
p92
g28
sS'single top'
p93
(lp94
g10
ag9
ag36
ag37
as.(dp0
S'3l_inclusive'
p1
S'3l inclusive'
p2
sS'inclusive'
p3
g3
sS'QCD2l_high_met'
p4
S'QCD ll (45 < MET < 80)'
p5
sS'ZPlusJet_low_met'
p6
S'Z+jet (MET < 20)'
p7
sS'QCD2l_low_met'
p8
S'QCD ll (MET < 20)'
p9
sS'os_inclusive'
p10
S'os inclusive'
p11
sS'3l_mumumu'
p12
S'#mu#mu#mu'
p13
sS'3l_emumu'
p14
S'e#mu#mu'
p15
sS'QCD2l_inclusive'
p16
S'QCD ll'
p17
sS'os_emu'
p18
S'e^{#pm}mu^{#mp}'
p19
sS'high_met'
p20
S'45 < MET < 80'
p21
sS'low_met'
p22
S'MET < 20'
p23
sS'os_ee'
p24
S'e^{#pm}e^{#mp}'
p25
sS'3l_SSSF'
p26
S'(l^{#pm}l^{#pm})l'
p27
sS'ZPlusJet_inclusive'
p28
S'Z+jet'
p29
sS'ss_emu'
p30
S'e^{#pm}#mu^{#pm}'
p31
sS'ZPlusJet_high_met'
p32
S'Z+jet (45 < MET < 80)'
p33
sS'ss_mumu'
p34
S'#mu^{#pm}#mu^{#pm}'
p35
sS'3l_eemu'
p36
S'ee#mu'
p37
sS'os_mumu'
p38
S'#mu^{#pm}#mu^{#mp}'
p39
sS'ss_inclusive'
p40
S'ss inclusive'
p41
sS'ss_ee'
p42
S'e^{#pm}e^{#pm}'
p43
sS'3l_OSSF'
p44
S'(l^{#pm}l^{#mp})l'
p45
sS'3l_eee'
p46
S'eee'
p47
s.