(dp0
S'2011'
p1
(dp2
S'tW'
p3
F7.8700000000000001
sS'GluGluWW'
p4
F0.15049999999999999
sS'WW'
p5
F4.5099999999999998
sS'QFlips'
p6
F1.0
sS'WZJets2L2Q'
p7
F1.8329
sS'ZbbToLL'
p8
F304.0
sS'WZ'
p9
F0.59599999999999997
sS'ZZJets2L2Q'
p10
F0.62460000000000004
sS'ZJets_M-50'
p11
F3048.0
sS'DATA_MUEG'
p12
F1.0
sS'FCNC_M125_t'
p13
F0.0040000000000000001
sS'WJets'
p14
I31314
sS'ttbar'
p15
I165
sS'DATA_MUON'
p16
F1.0
sS'DYToTauTau'
p17
F1666.0
sS'ZG'
p18
F159.12
sS'ZZ'
p19
F0.214
sS'WWJets2L2Nu'
p20
F4.7830000000000004
sS'WZJets3LNu'
p21
F0.85599999999999998
sS'ZJets_M-10To50'
p22
F742.60000000000002
sS'ZZJets2L2Nu'
p23
F0.1787
sS'FCNC_M125_tbar'
p24
F0.0040000000000000001
sS'ZGToNuNu'
p25
F3.4620000000000002
sS'DATA_ELECTRON'
p26
F1.0
sS'DYToEE'
p27
F1666.0
sS'Fakes'
p28
F1.0
sS'DYToMuMu'
p29
F1666.0
sS'tbarW'
p30
F7.8700000000000001
ssS'2012'
p31
(dp32
S'WG'
p33
F1000.0
sS'Fakes_e'
p34
F1.0
sg13
F0.036855645926399998
sS'FCNC_M125_t_TauTau'
<<<<<<< HEAD
p35
F0.095528160000000001
=======
p34
F0.10287648000000001
>>>>>>> parent of 17d9010... Adding new BDT weight files
sg3
F11.77
sS'tbar_t-channel'
p36
F30.699999999999999
sg4
F0.15049999999999999
sg5
F54.799999999999997
sS'QCD_80-170_EM'
p37
I183722
sS'QCD_250-350_EM'
p38
F556.75
sS'WHToWWW3L_M-125'
p39
F0.019034999999999996
sg6
F1.0
sS'ggHToZZ4L_M-125'
p40
F0.0041271119999999996
sg7
F5.0899999999999999
sg17
F1666.0
sg8
F94.099999999999994
sS'WWZ'
p41
F0.063
sS'ZZ4tau'
p42
F0.076910000000000006
sg9
F32.299999999999997
sg10
F1.28
sS'ttZ'
p43
F0.20599999999999999
sS'ZZZ'
p44
F0.0045999999999999999
sg11
F3532.8000000000002
sS'WGStarLNu2Mu'
p45
F1.9139999999999999
sS'FCNC_M125_t_semilep'
<<<<<<< HEAD
p46
F0.21421125423360002
=======
p45
F0.23068904302080004
>>>>>>> parent of 17d9010... Adding new BDT weight files
sS'ttW'
p47
F0.249
sS'ZZ4mu'
p48
F0.076910000000000006
sg28
F1.0
sg14
I31314
sS'TTH_M-125'
p49
F0.1032
sS'QCD_170-250_EM'
p50
I4588
sS'ZZ2mu2tau'
p51
F0.1767
sS'ZZ4e'
p52
F0.076910000000000006
sg15
F244.76400000000001
sS'ZGstar'
p53
F0.5
sS'ttG'
p54
F2.1659999999999999
sg16
F1.0
sS'Fakes_emu'
p55
F1.0
sS'WZZ'
p56
F0.019199999999999998
sS'ZZJets4L'
p57
F0.092100000000000001
sS'WGStarLNu2E'
p58
F5.8730000000000002
sg18
F159.12
sS'ZZ2e2mu'
p59
F0.1767
sS'QCD_30-80_EM'
p60
F4615893.0
sS'QCD_20-30_EM'
p61
F2920632.0
sg19
F7.7000000000000002
sS'Fakes_mu'
p62
F1.0
sS't_t-channel'
p63
F55.530000000000001
sg20
F5.9950000000000001
sg21
F1.0860000000000001
sg22
F860.5
sS'ggHToWW2L2Nu_M-125'
p64
F0.37345499999999993
sg23
F0.36499999999999999
sg24
F0.018427822963199999
sS'WWW'
p65
F0.082000000000000003
sS'Fakes_mumu'
p66
F1.0
sg25
F3.4620000000000002
sg26
F1.0
sg27
F1666.0
sS'WbbToLNu'
p67
F39.899999999999999
sS'WGStarLNu2Tau'
p68
F0.33600000000000002
sg12
F1.0
sS'WWG'
p69
F0.52800000000000002
sS'ZZ2e2tau'
p70
F0.1767
sS'QCD_350_EM'
p71
F89.099999999999994
sS'QCD_20_MU'
p72
F84679.0
sS'FCNC_M125_t_ZZ'
<<<<<<< HEAD
p73
F0.0076058611200000006
=======
p69
F0.0081909273600000009
>>>>>>> parent of 17d9010... Adding new BDT weight files
sg29
F1666.0
sg30
F11.77
sS'Fakes_ee'
p74
F1.0
ss.(dp0
S'WG'
p1
(I0
I859
I1
I1
S'WG*'
p2
tp3
sS'ZZToEE'
p4
(I2
I413
I0
I1
S'ZZ (ee)'
p5
tp6
sS'RATIO'
p7
(I0
I1
I3002
I21
S'Ratio'
p8
tp9
sS'WW/ZZ'
p10
(I0
I921
I1
I1
g10
tp11
sS'tbar_t-channel'
p12
(I2
I596
I1
I1
S'#bar{t} (t-channel)'
p13
tp14
sS'QCD'
p15
(I2
I800
I1
I1
g15
tp16
sS'PROMPT_2l'
p17
(I2
I632
I3001
I21
S'Prompt'
p18
tp19
sS'tbarW'
p20
(I2
I598
I1
I1
S'#bar{t}W'
p21
tp22
sS'WW'
p23
(I2
I412
I0
I1
g23
tp24
sS'GJets_15to30'
p25
(I2
I402
I0
I1
S'gamma+jets'
p26
tp27
sS'tW'
p28
(I2
I599
I1
I1
g28
tp29
sS'ZZToEMu'
p30
(I2
I414
I0
I1
S'ZZ (e#mu)'
p31
tp32
sS'SUM_EFF'
p33
(I2
I600
I1
I21
S'BG'
p34
tp35
sS'single top'
p36
(I0
I602
I3004
I1
S't'
p37
tp38
sS'WZJets2L2Q'
p39
(I3
I597
I0
I1
S'WZ#rightarrow2l2q'
p40
tp41
sS'DYToTauTau'
p42
(I2
I629
I0
I1
S'Z+jets (#tau#tau)'
p43
tp44
sS'ZbbToLL'
p45
(I2
I624
I1
I1
S'Z+bb'
p46
tp47
sS'WWZ'
p48
(I0
I433
I1
I1
g48
tp49
sS'DATA'
p50
(I2
I1
I0
I21
S'Observed'
p51
tp52
sS'ZZToTauTau'
p53
(I2
I418
I0
I1
S'ZZ (#tau#tau)'
p54
tp55
sS'SIG_EFF'
p56
(I2
I632
I1
I21
S'Signal'
p57
tp58
sS'ZZJets2L2Q'
p59
(I2
I593
I1
I1
S'ZZ#rightarrow2l2q'
p60
tp61
sS'ttZ'
p62
(I0
I417
I1
I1
S't#bar{t}Z'
p63
tp64
sS'FAKEABLE'
p65
(I2
I600
I0
I21
S'Fakeable'
p66
tp67
sS'PhotonJets'
p68
(I2
I632
I0
I1
S'Z+jets (data)'
p69
tp70
sS'ZZZ'
p71
(I0
I435
I1
I1
g71
tp72
sS'ZJets_M-50'
p73
(I0
I633
I1
I1
S'Z+jets (M_{Z/#gamma*} > 50)'
p74
tp75
sS'WGStarLNu2Mu'
p76
(I0
I860
I1
I1
S'WG*#ell#nu2#mu'
p77
tp78
sS'DATA_MUEG'
p79
(I2
I922
I0
I21
S'Observed (e#mu)'
p80
tp81
sS'ZZ4tau'
p82
(I2
I808
I1
I1
S'ZZ#rightarrow 4#tau'
p83
tp84
sS'top'
p85
(I0
I601
I1
I1
S't#bar{t}/t'
p86
tp87
sS'ttW'
p88
(I0
I418
I1
I1
S't#bar{t}W'
p89
tp90
sS'ttV'
p91
(I0
I417
I1
I1
S't#bar{t}V'
p92
tp93
sS'ZZ4mu'
p94
(I2
I810
I1
I1
S'ZZ#rightarrow 4l'
p95
tp96
sS'ZZ4l'
p97
(I0
I921
I1
I1
S'ZZ#rightarrow4l'
p98
tp99
sS'WWW'
p100
(I0
I432
I1
I1
g100
tp101
sS'WJets'
p102
(I2
I857
I1
I1
S'W+jets'
p103
tp104
sS'Fakes'
p105
(I2
I1
I3001
I1
g105
tp106
sS'ZZToMuTau'
p107
(I2
I414
I0
I1
S'ZZ (#mu#tau)'
p108
tp109
sS'Irreducible'
p110
(I2
I600
I0
I21
g110
tp111
sS'ZZ4e'
p112
(I2
I809
I1
I1
S'ZZ#rightarrow 4e'
p113
tp114
sS'ZJets_M-10To50'
p115
(I0
I634
I1
I1
S'Z+jets (M_{Z/#gamma*} < 50)'
p116
tp117
sS'ZGstar'
p118
(I2
I603
I0
I1
S'Z#gamma^{*}'
p119
tp120
sS'ttG'
p121
(I0
I419
I1
I1
S't#bar{t}G'
p122
tp123
sS'VJets'
p124
(I0
I632
I1
I1
S'V+jets'
p125
tp126
sS'WZZ'
p127
(I0
I434
I1
I1
g127
tp128
sS'SIGNIFICANCE'
p129
(I2
I416
I1
I21
S'Signficance'
p130
tp131
sS'ZZJets4L'
p132
(I2
I602
I1
I1
g98
tp133
sS'WGStarLNu2E'
p134
(I0
I860
I1
I1
S'WG*#ell#nu2e'
p135
tp136
sS'ZG'
p137
(I0
I623
I1
I1
S'Z#gamma'
p138
tp139
sS'WZ'
p140
(I2
I909
I0
I1
g140
tp141
sS'PROMPT_3l'
p142
(I2
I632
I3001
I21
g18
tp143
sS'QCD_EM'
p144
(I2
I801
I1
I1
S'QCD e#gamma'
p145
tp146
sS'ZZToMuMu'
p147
(I2
I419
I0
I1
S'ZZ#rightarrow 4l '
p148
tp149
sS'FCNH'
p150
(I3
I903
I2
I22
g150
tp151
sS'ZZ'
p152
(I2
I804
I0
I1
g152
tp153
sS'PASS'
p154
(I2
I1
I0
I23
S'Pass'
p155
tp156
sS't_t-channel'
p157
(I2
I597
I1
I1
S't (t-channel)'
p158
tp159
sS'WWJets2L2Nu'
p160
(I0
I921
I1
I1
S'WW#rightarrow2l2#nu'
p161
tp162
sS'ZJets'
p163
(I0
I632
I1
I1
S'Z+jets'
p164
tp165
sS'ttbar'
p166
(I0
I600
I1
I1
S't#bar{t}'
p167
tp168
sS'FAKES_3l'
p169
(I2
I600
I3001
I1
g18
tp170
sS'ZZJets2L2Nu'
p171
(I2
I419
I1
I1
S'ZZ#rightarrow2l2#nu'
p172
tp173
sS'WZJets3LNu'
p174
(I3
I617
I3004
I1
S'WZ#rightarrow3l#nu'
p175
tp176
sS'Diboson'
p177
(I0
I921
I1
I1
S'diboson'
p178
tp179
sS'ZGToNuNu'
p180
(I2
I603
I0
I1
S'ZG->#nu#nu'
p181
tp182
sS'higgs'
p183
(I2
I603
I0
I1
g183
tp184
sS'ZZ2e2mu'
p185
(I2
I807
I1
I1
S'ZZ#rightarrow 2e2#mu'
p186
tp187
sS'Triboson'
p188
(I0
I432
I1
I1
S'triboson'
p189
tp190
sS'DATA_ELECTRON'
p191
(I2
I921
I0
I21
S'Observed (ee)'
p192
tp193
sS'DATA_FAKES'
p194
(I2
I1
I3001
I21
S'Data'
p195
tp196
sS'DYToEE'
p197
(I2
I632
I0
I1
S'Z+jets (ee)'
p198
tp199
sS'WbbToLNu'
p200
(I2
I858
I1
I1
S'W+bb'
p201
tp202
sS'WGStarLNu2Tau'
p203
(I0
I860
I1
I1
S'WG*#ell#nu2#tau'
p204
tp205
sS'WWG'
p206
(I0
I436
I1
I1
g206
tp207
sS'ZZ2e2tau'
p208
(I2
I806
I1
I1
S'ZZ#rightarrow 2e2#tau'
p209
tp210
sS'ZZ2mu2tau'
p211
(I2
I805
I1
I1
S'ZZ#rightarrow 2#mu2#tau'
p212
tp213
sS'QCD_20_MU'
p214
(I2
I799
I1
I1
S'QCD #mu'
p215
tp216
sS'FAKES_2l'
p217
(I2
I632
I3001
I1
g18
tp218
sS'DYToMuMu'
p219
(I2
I632
I0
I1
S'Z+jets (#mu#mu)'
p220
tp221
sS'DATA_MUON'
p222
(I2
I920
I0
I21
S'Observed (#mu#mu)'
p223
tp224
sS'ZZToETau'
p225
(I2
I414
I0
I1
S'ZZ (e#tau)'
p226
tp227
sS'BGERROR'
p228
(I0
I1
I3018
I0
S'BG error'
p229
tp230
sS'QFlips'
p231
(I2
I602
I3001
I1
g231
tp232
s.(dp0
S'Remove_ss'
p1
(lp2
S'ZJets_M-50'
p3
aS'ZJets_M-10To50'
p4
asS'FAKES_2l'
p5
(lp6
S'WbbToLNu'
p7
ag3
ag4
aS'ttbar'
p8
aS'tbarW'
p9
aS'tW'
p10
aS'WWJets2L2Nu'
p11
aS'ZZJets2L2Nu'
p12
aS'ZZJets2L2Q'
p13
asS'PROMPT_2l'
p14
g6
sS'FAKES_3l'
p15
(lp16
S'WZJets3LNu'
p17
asS'QCD'
p18
(lp19
S'QCD_20_MU'
p20
aS'QCD_20-30_EM'
p21
aS'QCD_30-80_EM'
p22
aS'QCD_80-170_EM'
p23
aS'QCD_170-250_EM'
p24
aS'QCD_250-350_EM'
p25
aS'QCD_350_EM'
p26
asS'PASS'
p27
(lp28
S'DATA_MUON'
p29
aS'DATA_ELECTRON'
p30
aS'DATA_MUEG'
p31
asS'DATA'
p32
g28
sS'FAKEABLE'
p33
g28
sS'top'
p34
(lp35
g8
ag10
ag9
aS't_t-channel'
p36
aS'tbar_t-channel'
p37
asS'ttV'
p38
(lp39
S'ttZ'
p40
aS'ttW'
p41
aS'ttG'
p42
asS'ZZ4l'
p43
(lp44
S'ZZ4mu'
p45
aS'ZZ4e'
p46
aS'ZZ4tau'
p47
aS'ZZ2e2mu'
p48
aS'ZZ2mu2tau'
p49
aS'ZZ2e2tau'
p50
asS'WGStar'
p51
(lp52
S'WGStarLNu2E'
p53
aS'WGStarLNu2Mu'
p54
aS'WGStarLNu2Tau'
p55
asS'FCNH'
p56
(lp57
S'FCNC_M125_t'
p58
aS'FCNC_M125_t_semilep'
p59
aS'FCNC_M125_t_ZZ'
p60
aS'FCNC_M125_t_TauTau'
p61
asS'VJets'
p62
(lp63
g3
ag4
aS'WJets'
p64
asS'Irreducible'
p65
(lp66
S'ggHToZZ4L_M-125'
p67
aS'WHToWWW3L_M-125'
p68
aS'ggHToWW2L2Nu_M-125'
p69
aS'TTH_M-125'
p70
ag45
ag46
ag47
ag48
ag49
ag50
ag40
ag41
ag42
aS'WWW'
p71
aS'WWZ'
p72
aS'WZZ'
p73
aS'ZZZ'
p74
aS'WWG'
p75
ag17
asS'PROMPT_3l'
p76
g16
sS'QCD_EM'
p77
(lp78
g21
ag22
ag23
ag24
ag25
ag26
asS'Remove_3l'
p79
(lp80
g17
ag45
ag46
ag47
ag48
ag49
ag50
asS'ZJets'
p81
(lp82
g3
ag4
asS'Diboson'
p83
(lp84
g45
ag46
ag47
ag48
ag49
ag50
ag11
ag12
ag17
asS'higgs'
p85
(lp86
g67
ag68
ag69
ag70
asS'Triboson'
p87
(lp88
g71
ag72
ag73
ag74
ag75
asS'WW/ZZ'
p89
(lp90
g45
ag46
ag47
ag48
ag49
ag50
ag11
ag12
asS'DATA_FAKES'
p91
g28
sS'Fakes'
p92
(lp93
S'Fakes_e'
p94
aS'Fakes_mu'
p95
aS'Fakes_ee'
p96
aS'Fakes_emu'
p97
aS'Fakes_mumu'
p98
asS'single top'
p99
(lp100
g10
ag9
ag36
ag37
as.(dp0
S'3l_inclusive'
p1
S'3l inclusive'
p2
sS'inclusive'
p3
g3
sS'QCD2l_high_met'
p4
S'QCD ll (45 < MET < 80)'
p5
sS'ZPlusJet_low_met'
p6
S'Z+jet (MET < 20)'
p7
sS'QCD2l_low_met'
p8
S'QCD ll (MET < 20)'
p9
sS'os_inclusive'
p10
S'os inclusive'
p11
sS'3l_mumumu'
p12
S'#mu#mu#mu'
p13
sS'3l_emumu'
p14
S'e#mu#mu'
p15
sS'QCD2l_inclusive'
p16
S'QCD ll'
p17
sS'os_emu'
p18
S'e^{#pm}mu^{#mp}'
p19
sS'high_met'
p20
S'45 < MET < 80'
p21
sS'low_met'
p22
S'MET < 20'
p23
sS'os_ee'
p24
S'e^{#pm}e^{#mp}'
p25
sS'3l_SSSF'
p26
S'(l^{#pm}l^{#pm})l'
p27
sS'ZPlusJet_inclusive'
p28
S'Z+jet'
p29
sS'ss_emu'
p30
S'e^{#pm}#mu^{#pm}'
p31
sS'ZPlusJet_high_met'
p32
S'Z+jet (45 < MET < 80)'
p33
sS'ss_mumu'
p34
S'#mu^{#pm}#mu^{#pm}'
p35
sS'3l_eemu'
p36
S'ee#mu'
p37
sS'os_mumu'
p38
S'#mu^{#pm}#mu^{#mp}'
p39
sS'ss_inclusive'
p40
S'ss inclusive'
p41
sS'ss_ee'
p42
S'e^{#pm}e^{#pm}'
p43
sS'3l_OSSF'
p44
S'(l^{#pm}l^{#mp})l'
p45
sS'3l_eee'
p46
S'eee'
p47
s.